   1              		.file	"main.c"
   2              		.text
   3              	.Ltext0:
   4              		.section	.text.hardware_video_init,"ax",@progbits
   6              	hardware_video_init:
   7              	.LFB6:
   8              		.file 1 "host/hardware.h"
   1:host/hardware.h **** #ifndef HOST_HARDWARE_H_
   2:host/hardware.h **** #define HOST_HARDWARE_H_
   3:host/hardware.h **** #include <stdbool.h>
   4:host/hardware.h **** 
   5:host/hardware.h **** extern uint16_t *videoBuffer;
   6:host/hardware.h **** uint32_t button_get( void );
   7:host/hardware.h **** 
   8:host/hardware.h **** #define BUTTONS button_get()
   9:host/hardware.h **** 
  10:host/hardware.h **** static inline void hardware_video_init( void )
  11:host/hardware.h **** {
   9              		.loc 1 11 1
  10              		.cfi_startproc
  11 0000 55       		pushq	%rbp
  12              		.cfi_def_cfa_offset 16
  13              		.cfi_offset 6, -16
  14 0001 4889E5   		movq	%rsp, %rbp
  15              		.cfi_def_cfa_register 6
  12:host/hardware.h ****     static bool inited = false;
  13:host/hardware.h ****     extern volatile uint32_t* frame_buffer_init(void);
  14:host/hardware.h **** 
  15:host/hardware.h ****     if( false == inited )
  16              		.loc 1 15 15
  17 0004 0FB60500 		movzbl	inited.2496(%rip), %eax
  17      000000
  18 000b 83F001   		xorl	$1, %eax
  19              		.loc 1 15 7
  20 000e 84C0     		testb	%al, %al
  21 0010 740C     		je	.L3
  16:host/hardware.h ****     {
  17:host/hardware.h ****         (void)frame_buffer_init();
  22              		.loc 1 17 15
  23 0012 E8000000 		call	frame_buffer_init@PLT
  23      00
  18:host/hardware.h ****         inited = true;
  24              		.loc 1 18 16
  25 0017 C6050000 		movb	$1, inited.2496(%rip)
  25      000001
  26              	.L3:
  19:host/hardware.h ****     }
  20:host/hardware.h **** }
  27              		.loc 1 20 1
  28 001e 90       		nop
  29 001f 5D       		popq	%rbp
  30              		.cfi_def_cfa 7, 8
  31 0020 C3       		ret
  32              		.cfi_endproc
  33              	.LFE6:
  35              		.globl	oldLives
  36              		.section	.data.oldLives,"aw"
  37              		.align 4
  40              	oldLives:
  41 0000 FFFFFFFF 		.long	-1
  42              		.globl	oldAmmo
  43              		.section	.data.oldAmmo,"aw"
  44              		.align 4
  47              	oldAmmo:
  48 0000 FFFFFFFF 		.long	-1
  49              		.globl	oldScore
  50              		.section	.data.oldScore,"aw"
  51              		.align 4
  54              	oldScore:
  55 0000 FFFFFFFF 		.long	-1
  56              		.globl	oldHealth
  57              		.section	.data.oldHealth,"aw"
  58              		.align 4
  61              	oldHealth:
  62 0000 FFFFFFFF 		.long	-1
  63              		.globl	oldLevel
  64              		.section	.data.oldLevel,"aw"
  65              		.align 4
  68              	oldLevel:
  69 0000 FFFFFFFF 		.long	-1
  70              		.globl	gameClock
  71              		.section	.bss.gameClock,"aw",@nobits
  72              		.align 4
  75              	gameClock:
  76 0000 00000000 		.zero	4
  77              		.globl	lives
  78              		.section	.bss.lives,"aw",@nobits
  79              		.align 4
  82              	lives:
  83 0000 00000000 		.zero	4
  84              		.globl	ammo
  85              		.section	.bss.ammo,"aw",@nobits
  86              		.align 4
  89              	ammo:
  90 0000 00000000 		.zero	4
  91              		.globl	shotgunTime
  92              		.section	.bss.shotgunTime,"aw",@nobits
  93              		.align 4
  96              	shotgunTime:
  97 0000 00000000 		.zero	4
  98              		.globl	score
  99              		.section	.bss.score,"aw",@nobits
 100              		.align 4
 103              	score:
 104 0000 00000000 		.zero	4
 105              		.globl	level
 106              		.section	.bss.level,"aw",@nobits
 107              		.align 4
 110              	level:
 111 0000 00000000 		.zero	4
 112              		.globl	bgColor
 113              		.section	.bss.bgColor,"aw",@nobits
 114              		.align 2
 117              	bgColor:
 118 0000 0000     		.zero	2
 119              		.globl	barColor
 120              		.section	.data.barColor,"aw"
 121              		.align 2
 124              	barColor:
 126              		.globl	player
 127              		.section	.bss.player,"aw",@nobits
 128              		.align 32
 131              	player:
 132 0000 00000000 		.zero	32
 132      00000000 
 132      00000000 
 132      00000000 
 132      00000000 
 133              		.globl	numEnemies
 134              		.section	.bss.numEnemies,"aw",@nobits
 135              		.align 4
 138              	numEnemies:
 139 0000 00000000 		.zero	4
 140              		.globl	enemies
 141              		.section	.bss.enemies,"aw",@nobits
 142              		.align 32
 145              	enemies:
 146 0000 00000000 		.zero	640
 146      00000000 
 146      00000000 
 146      00000000 
 146      00000000 
 147              		.globl	numExplosions
 148              		.section	.bss.numExplosions,"aw",@nobits
 149              		.align 4
 152              	numExplosions:
 153 0000 00000000 		.zero	4
 154              		.globl	explosions
 155              		.section	.bss.explosions,"aw",@nobits
 156              		.align 32
 159              	explosions:
 160 0000 00000000 		.zero	480
 160      00000000 
 160      00000000 
 160      00000000 
 160      00000000 
 161              		.globl	numProjectiles
 162              		.section	.bss.numProjectiles,"aw",@nobits
 163              		.align 4
 166              	numProjectiles:
 167 0000 00000000 		.zero	4
 168              		.globl	projectiles
 169              		.section	.bss.projectiles,"aw",@nobits
 170              		.align 32
 173              	projectiles:
 174 0000 00000000 		.zero	1280
 174      00000000 
 174      00000000 
 174      00000000 
 174      00000000 
 175              		.globl	numPickups
 176              		.section	.bss.numPickups,"aw",@nobits
 177              		.align 4
 180              	numPickups:
 181 0000 00000000 		.zero	4
 182              		.globl	pickups
 183              		.section	.bss.pickups,"aw",@nobits
 184              		.align 32
 187              	pickups:
 188 0000 00000000 		.zero	160
 188      00000000 
 188      00000000 
 188      00000000 
 188      00000000 
 189              		.globl	buffer
 190              		.section	.bss.buffer,"aw",@nobits
 191              		.align 32
 194              	buffer:
 195 0000 00000000 		.zero	41
 195      00000000 
 195      00000000 
 195      00000000 
 195      00000000 
 196              		.section	.rodata
 197              	.LC0:
 198 0000 50726573 		.string	"Press Start"
 198      73205374 
 198      61727400 
 199              	.LC1:
 200 000c 4D697373 		.string	"Mission 1"
 200      696F6E20 
 200      3100
 201              	.LC2:
 202 0016 54686520 		.string	"The Outer Rim"
 202      4F757465 
 202      72205269 
 202      6D00
 203              	.LC3:
 204 0024 4D697373 		.string	"Mission 2"
 204      696F6E20 
 204      3200
 205              	.LC4:
 206 002e 54686520 		.string	"The Great Wastelands"
 206      47726561 
 206      74205761 
 206      7374656C 
 206      616E6473 
 207              	.LC5:
 208 0043 596F7572 		.string	"Your score: %d"
 208      2073636F 
 208      72653A20 
 208      256400
 209              	.LC6:
 210 0052 436F6E67 		.string	"Congratulations! You've won!"
 210      72617475 
 210      6C617469 
 210      6F6E7321 
 210      20596F75 
 211              		.section	.text.main,"ax",@progbits
 212              		.globl	main
 214              	main:
 215              	.LFB7:
 216              		.file 2 "src/main.c"
   1:src/main.c    **** //Jacob Wartofsky
   2:src/main.c    **** //gtID 903161493
   3:src/main.c    **** //jake@wartofsky.net
   4:src/main.c    **** 
   5:src/main.c    **** #include "myLib.h"
   6:src/main.c    **** #include "title.h"
   7:src/main.c    **** #include "KusInt.h"
   8:src/main.c    **** #include "TurInt.h"
   9:src/main.c    **** #include "TurCorv.h"
  10:src/main.c    **** #include "TurMissCorv.h"
  11:src/main.c    **** #include "explosion1.h"
  12:src/main.c    **** #include "explosion2.h"
  13:src/main.c    **** #include "explosion3.h"
  14:src/main.c    **** #include "Bullet.h"
  15:src/main.c    **** #include "RedBullet.h"
  16:src/main.c    **** #include "Rocket.h"
  17:src/main.c    **** #include "Missile.h"
  18:src/main.c    **** #include "HealthPickup.h"
  19:src/main.c    **** #include "ShieldPickup.h"
  20:src/main.c    **** #include "ShotgunPickup.h"
  21:src/main.c    **** #include "RocketPickup.h"
  22:src/main.c    **** #include "GameOverScreen.h"
  23:src/main.c    **** #include <stdlib.h>
  24:src/main.c    **** #include <stdio.h>
  25:src/main.c    **** #include "text.h"
  26:src/main.c    **** #include "hardware.h"
  27:src/main.c    **** 
  28:src/main.c    **** //To keep track of changes to score/lives/ammo
  29:src/main.c    **** int oldLives = -1;
  30:src/main.c    **** int oldAmmo = -1;
  31:src/main.c    **** int oldScore = -1;
  32:src/main.c    **** int oldHealth = -1;
  33:src/main.c    **** int oldLevel = -1;
  34:src/main.c    **** 
  35:src/main.c    **** int gameClock = 0;
  36:src/main.c    **** int lives;
  37:src/main.c    **** int ammo;
  38:src/main.c    **** int shotgunTime;
  39:src/main.c    **** int score;
  40:src/main.c    **** int level;
  41:src/main.c    **** uint16_t bgColor = RGB( 0, 0, 0 );
  42:src/main.c    **** uint16_t barColor = RGB( 5, 5, 10 );
  43:src/main.c    **** 
  44:src/main.c    **** // struct Entity projectiles[20];
  45:src/main.c    **** // struct Entity ships[20];
  46:src/main.c    **** uShip player;
  47:src/main.c    **** 
  48:src/main.c    **** //to store enemy ships
  49:src/main.c    **** int numEnemies = 0;
  50:src/main.c    **** uShip enemies[20];
  51:src/main.c    **** 
  52:src/main.c    **** //to store explosions
  53:src/main.c    **** int numExplosions = 0;
  54:src/main.c    **** uEntity explosions[20];
  55:src/main.c    **** 
  56:src/main.c    **** //to store projectiles
  57:src/main.c    **** int numProjectiles = 0;
  58:src/main.c    **** uProjectile projectiles[40];
  59:src/main.c    **** 
  60:src/main.c    **** //to store pickups
  61:src/main.c    **** int numPickups = 0;
  62:src/main.c    **** uPickup pickups[5];
  63:src/main.c    **** 
  64:src/main.c    **** char buffer[41];
  65:src/main.c    **** 
  66:src/main.c    **** int main(void)
  67:src/main.c    **** {
 217              		.loc 2 67 1
 218              		.cfi_startproc
 219 0000 F30F1EFA 		endbr64
 220 0004 55       		pushq	%rbp
 221              		.cfi_def_cfa_offset 16
 222              		.cfi_offset 6, -16
 223 0005 4889E5   		movq	%rsp, %rbp
 224              		.cfi_def_cfa_register 6
 225 0008 4883EC30 		subq	$48, %rsp
 226              		.loc 2 67 1
 227 000c 64488B04 		movq	%fs:40, %rax
 227      25280000 
 227      00
 228 0015 488945F8 		movq	%rax, -8(%rbp)
 229 0019 31C0     		xorl	%eax, %eax
  68:src/main.c    ****     hardware_video_init();
 230              		.loc 2 68 5
 231 001b E8000000 		call	hardware_video_init
 231      00
  69:src/main.c    ****     GameState state;
  70:src/main.c    **** 
  71:src/main.c    ****     state = Start;
 232              		.loc 2 71 11
 233 0020 C745F400 		movl	$0, -12(%rbp)
 233      000000
  72:src/main.c    ****     char draw = false;
 234              		.loc 2 72 10
 235 0027 C645F200 		movb	$0, -14(%rbp)
  73:src/main.c    ****     char startDown = true;
 236              		.loc 2 73 10
 237 002b C645F301 		movb	$1, -13(%rbp)
  74:src/main.c    ****     // drawRectangle(0, 0, 20, 16, RGB(0,31,31));
  75:src/main.c    ****     // drawImage3(40, 30, KUSINT_WIDTH, KUSINT_HEIGHT, KusInt);
  76:src/main.c    **** 
  77:src/main.c    ****     player = createShip( 0, 72, KUSINT_WIDTH, KUSINT_HEIGHT, KusInt );
 238              		.loc 2 77 14
 239 002f 488D45D0 		leaq	-48(%rbp), %rax
 240 0033 4C8D0D00 		leaq	KusInt(%rip), %r9
 240      000000
 241 003a 41B80F00 		movl	$15, %r8d
 241      0000
 242 0040 B9140000 		movl	$20, %ecx
 242      00
 243 0045 BA480000 		movl	$72, %edx
 243      00
 244 004a BE000000 		movl	$0, %esi
 244      00
 245 004f 4889C7   		movq	%rax, %rdi
 246 0052 E8000000 		call	createShip
 246      00
 247 0057 488B45D0 		movq	-48(%rbp), %rax
 248 005b 488B55D8 		movq	-40(%rbp), %rdx
 249 005f 48890500 		movq	%rax, player(%rip)
 249      000000
 250 0066 48891500 		movq	%rdx, 8+player(%rip)
 250      000000
 251 006d 488B45E0 		movq	-32(%rbp), %rax
 252 0071 488B55E8 		movq	-24(%rbp), %rdx
 253 0075 48890500 		movq	%rax, 16+player(%rip)
 253      000000
 254 007c 48891500 		movq	%rdx, 24+player(%rip)
 254      000000
  78:src/main.c    ****     player.entity.canExit = false;
 255              		.loc 2 78 27
 256 0083 C6050000 		movb	$0, 8+player(%rip)
 256      000000
 257              	.L25:
 258 008a 837DF404 		cmpl	$4, -12(%rbp)
 259 008e 0F870D04 		ja	.L5
 259      0000
 260 0094 8B45F4   		movl	-12(%rbp), %eax
 261 0097 488D1485 		leaq	0(,%rax,4), %rdx
 261      00000000 
 262 009f 488D0500 		leaq	.L7(%rip), %rax
 262      000000
 263 00a6 8B0402   		movl	(%rdx,%rax), %eax
 264 00a9 4898     		cltq
 265 00ab 488D1500 		leaq	.L7(%rip), %rdx
 265      000000
 266 00b2 4801D0   		addq	%rdx, %rax
 267 00b5 3EFFE0   		notrack jmp	*%rax
 268              		.section	.rodata.main,"a",@progbits
 269              		.align 4
 270              		.align 4
 271              	.L7:
 272 0000 00000000 		.long	.L11-.L7
 273 0004 00000000 		.long	.L10-.L7
 274 0008 00000000 		.long	.L9-.L7
 275 000c 00000000 		.long	.L8-.L7
 276 0010 00000000 		.long	.L6-.L7
 277              		.section	.text.main
 278              	.L11:
  79:src/main.c    **** 
  80:src/main.c    ****     while( 1 )
  81:src/main.c    ****     {
  82:src/main.c    ****         switch( state )
  83:src/main.c    ****         {
  84:src/main.c    **** 
  85:src/main.c    ****         case Start:
  86:src/main.c    ****             if( draw == false )
 279              		.loc 2 86 15
 280 00b8 807DF200 		cmpb	$0, -14(%rbp)
 281 00bc 752B     		jne	.L12
  87:src/main.c    ****             {
  88:src/main.c    ****                 draw = true;
 282              		.loc 2 88 22
 283 00be C645F201 		movb	$1, -14(%rbp)
  89:src/main.c    ****                 drawScreen( title );
 284              		.loc 2 89 17
 285 00c2 488D3D00 		leaq	title(%rip), %rdi
 285      000000
 286 00c9 E8000000 		call	drawScreen@PLT
 286      00
  90:src/main.c    ****                 drawString( 88, 100, "Press Start", RGB( 20, 20, 24 ) );
 287              		.loc 2 90 17
 288 00ce B9946200 		movl	$25236, %ecx
 288      00
 289 00d3 488D1500 		leaq	.LC0(%rip), %rdx
 289      000000
 290 00da BE640000 		movl	$100, %esi
 290      00
 291 00df BF580000 		movl	$88, %edi
 291      00
 292 00e4 E8000000 		call	drawString@PLT
 292      00
 293              	.L12:
  91:src/main.c    ****             }
  92:src/main.c    ****             if( KEY_UP_NOW( BUTTON_START ) )
 294              		.loc 2 92 17
 295 00e9 E8000000 		call	button_get@PLT
 295      00
 296 00ee 83E008   		andl	$8, %eax
 297              		.loc 2 92 15
 298 00f1 85C0     		testl	%eax, %eax
 299 00f3 7404     		je	.L13
  93:src/main.c    ****             {
  94:src/main.c    ****                 startDown = false;
 300              		.loc 2 94 27
 301 00f5 C645F300 		movb	$0, -13(%rbp)
 302              	.L13:
  95:src/main.c    ****             }
  96:src/main.c    ****             if( KEY_DOWN_NOW(BUTTON_START) && (startDown == false) )
 303              		.loc 2 96 17
 304 00f9 E8000000 		call	button_get@PLT
 304      00
 305 00fe 83E008   		andl	$8, %eax
 306              		.loc 2 96 15
 307 0101 85C0     		testl	%eax, %eax
 308 0103 0F858E03 		jne	.L27
 308      0000
 309              		.loc 2 96 44 discriminator 1
 310 0109 807DF300 		cmpb	$0, -13(%rbp)
 311 010d 0F858403 		jne	.L27
 311      0000
  97:src/main.c    ****             {
  98:src/main.c    ****                 startDown = true;
 312              		.loc 2 98 27
 313 0113 C645F301 		movb	$1, -13(%rbp)
  99:src/main.c    ****                 reset();
 314              		.loc 2 99 17
 315 0117 E8000000 		call	reset
 315      00
 100:src/main.c    ****                 draw = false;
 316              		.loc 2 100 22
 317 011c C645F200 		movb	$0, -14(%rbp)
 101:src/main.c    ****                 drawRectangle( 0, 0, 240, UBound, barColor );
 318              		.loc 2 101 17
 319 0120 0FB70500 		movzwl	barColor(%rip), %eax
 319      000000
 320 0127 0FB7C0   		movzwl	%ax, %eax
 321 012a 4189C0   		movl	%eax, %r8d
 322 012d B9080000 		movl	$8, %ecx
 322      00
 323 0132 BAF00000 		movl	$240, %edx
 323      00
 324 0137 BE000000 		movl	$0, %esi
 324      00
 325 013c BF000000 		movl	$0, %edi
 325      00
 326 0141 E8000000 		call	drawRectangle@PLT
 326      00
 102:src/main.c    ****                 drawRectangle( 0, UBound, 240, (160 - UBound), bgColor );
 327              		.loc 2 102 17
 328 0146 0FB70500 		movzwl	bgColor(%rip), %eax
 328      000000
 329 014d 0FB7C0   		movzwl	%ax, %eax
 330 0150 4189C0   		movl	%eax, %r8d
 331 0153 B9980000 		movl	$152, %ecx
 331      00
 332 0158 BAF00000 		movl	$240, %edx
 332      00
 333 015d BE080000 		movl	$8, %esi
 333      00
 334 0162 BF000000 		movl	$0, %edi
 334      00
 335 0167 E8000000 		call	drawRectangle@PLT
 335      00
 103:src/main.c    ****                 level = 1;
 336              		.loc 2 103 23
 337 016c C7050000 		movl	$1, level(%rip)
 337      00000100 
 337      0000
 104:src/main.c    ****                 state = NextLevel;
 338              		.loc 2 104 23
 339 0176 C745F403 		movl	$3, -12(%rbp)
 339      000000
 105:src/main.c    ****             }
 106:src/main.c    ****             break;
 340              		.loc 2 106 13
 341 017d E9150300 		jmp	.L27
 341      00
 342              	.L10:
 107:src/main.c    **** 
 108:src/main.c    ****         case Game:
 109:src/main.c    ****             resetUI();
 343              		.loc 2 109 13
 344 0182 E8000000 		call	resetUI
 344      00
 110:src/main.c    ****             state = gameOn();
 345              		.loc 2 110 21
 346 0187 E8000000 		call	gameOn
 346      00
 347 018c 8945F4   		movl	%eax, -12(%rbp)
 111:src/main.c    ****             break;
 348              		.loc 2 111 13
 349 018f E90D0300 		jmp	.L5
 349      00
 350              	.L8:
 112:src/main.c    **** 
 113:src/main.c    ****         case NextLevel:
 114:src/main.c    ****             gameClock = 0;
 351              		.loc 2 114 23
 352 0194 C7050000 		movl	$0, gameClock(%rip)
 352      00000000 
 352      0000
 115:src/main.c    ****             if( draw == false )
 353              		.loc 2 115 15
 354 019e 807DF200 		cmpb	$0, -14(%rbp)
 355 01a2 0F852801 		jne	.L15
 355      0000
 116:src/main.c    ****             {
 117:src/main.c    ****                 if( level == 1 )
 356              		.loc 2 117 27
 357 01a8 8B050000 		movl	level(%rip), %eax
 357      0000
 358              		.loc 2 117 19
 359 01ae 83F801   		cmpl	$1, %eax
 360 01b1 0F858000 		jne	.L16
 360      0000
 118:src/main.c    ****                 {
 119:src/main.c    ****                     //bgColor = RGB(0,0,0);
 120:src/main.c    ****                     drawRectangle( 0, 0, 240, 160, bgColor );
 361              		.loc 2 120 21
 362 01b7 0FB70500 		movzwl	bgColor(%rip), %eax
 362      000000
 363 01be 0FB7C0   		movzwl	%ax, %eax
 364 01c1 4189C0   		movl	%eax, %r8d
 365 01c4 B9A00000 		movl	$160, %ecx
 365      00
 366 01c9 BAF00000 		movl	$240, %edx
 366      00
 367 01ce BE000000 		movl	$0, %esi
 367      00
 368 01d3 BF000000 		movl	$0, %edi
 368      00
 369 01d8 E8000000 		call	drawRectangle@PLT
 369      00
 121:src/main.c    ****                     drawString( 30, 30, "Mission 1", RGB( 20, 20, 24 ) );
 370              		.loc 2 121 21
 371 01dd B9946200 		movl	$25236, %ecx
 371      00
 372 01e2 488D1500 		leaq	.LC1(%rip), %rdx
 372      000000
 373 01e9 BE1E0000 		movl	$30, %esi
 373      00
 374 01ee BF1E0000 		movl	$30, %edi
 374      00
 375 01f3 E8000000 		call	drawString@PLT
 375      00
 122:src/main.c    ****                     drawString( 30, 40, "The Outer Rim", RGB( 20, 20, 24 ) );
 376              		.loc 2 122 21
 377 01f8 B9946200 		movl	$25236, %ecx
 377      00
 378 01fd 488D1500 		leaq	.LC2(%rip), %rdx
 378      000000
 379 0204 BE280000 		movl	$40, %esi
 379      00
 380 0209 BF1E0000 		movl	$30, %edi
 380      00
 381 020e E8000000 		call	drawString@PLT
 381      00
 123:src/main.c    ****                     drawString( 70, 102, "Press Start", RGB( 20, 20, 24 ) );
 382              		.loc 2 123 21
 383 0213 B9946200 		movl	$25236, %ecx
 383      00
 384 0218 488D1500 		leaq	.LC0(%rip), %rdx
 384      000000
 385 021f BE660000 		movl	$102, %esi
 385      00
 386 0224 BF460000 		movl	$70, %edi
 386      00
 387 0229 E8000000 		call	drawString@PLT
 387      00
 124:src/main.c    ****                     draw = true;
 388              		.loc 2 124 26
 389 022e C645F201 		movb	$1, -14(%rbp)
 390 0232 E9990000 		jmp	.L15
 390      00
 391              	.L16:
 125:src/main.c    ****                 }
 126:src/main.c    ****                 else if( level == 2 )
 392              		.loc 2 126 32
 393 0237 8B050000 		movl	level(%rip), %eax
 393      0000
 394              		.loc 2 126 24
 395 023d 83F802   		cmpl	$2, %eax
 396 0240 0F858A00 		jne	.L15
 396      0000
 127:src/main.c    ****                 {
 128:src/main.c    ****                     //bgColor = RGB(0,0,0);
 129:src/main.c    ****                     drawRectangle( 0, 0, 240, 160, bgColor );
 397              		.loc 2 129 21
 398 0246 0FB70500 		movzwl	bgColor(%rip), %eax
 398      000000
 399 024d 0FB7C0   		movzwl	%ax, %eax
 400 0250 4189C0   		movl	%eax, %r8d
 401 0253 B9A00000 		movl	$160, %ecx
 401      00
 402 0258 BAF00000 		movl	$240, %edx
 402      00
 403 025d BE000000 		movl	$0, %esi
 403      00
 404 0262 BF000000 		movl	$0, %edi
 404      00
 405 0267 E8000000 		call	drawRectangle@PLT
 405      00
 130:src/main.c    ****                     drawString( 30, 30, "Mission 2", RGB( 20, 20, 24 ) );
 406              		.loc 2 130 21
 407 026c B9946200 		movl	$25236, %ecx
 407      00
 408 0271 488D1500 		leaq	.LC3(%rip), %rdx
 408      000000
 409 0278 BE1E0000 		movl	$30, %esi
 409      00
 410 027d BF1E0000 		movl	$30, %edi
 410      00
 411 0282 E8000000 		call	drawString@PLT
 411      00
 131:src/main.c    ****                     drawString( 30, 40, "The Great Wastelands", RGB( 20, 20, 24 ) );
 412              		.loc 2 131 21
 413 0287 B9946200 		movl	$25236, %ecx
 413      00
 414 028c 488D1500 		leaq	.LC4(%rip), %rdx
 414      000000
 415 0293 BE280000 		movl	$40, %esi
 415      00
 416 0298 BF1E0000 		movl	$30, %edi
 416      00
 417 029d E8000000 		call	drawString@PLT
 417      00
 132:src/main.c    ****                     drawString( 70, 102, "Press Start", RGB( 20, 20, 24 ) );
 418              		.loc 2 132 21
 419 02a2 B9946200 		movl	$25236, %ecx
 419      00
 420 02a7 488D1500 		leaq	.LC0(%rip), %rdx
 420      000000
 421 02ae BE660000 		movl	$102, %esi
 421      00
 422 02b3 BF460000 		movl	$70, %edi
 422      00
 423 02b8 E8000000 		call	drawString@PLT
 423      00
 133:src/main.c    ****                     lives += 1;
 424              		.loc 2 133 27
 425 02bd 8B050000 		movl	lives(%rip), %eax
 425      0000
 426 02c3 83C001   		addl	$1, %eax
 427 02c6 89050000 		movl	%eax, lives(%rip)
 427      0000
 134:src/main.c    ****                     draw = true;
 428              		.loc 2 134 26
 429 02cc C645F201 		movb	$1, -14(%rbp)
 430              	.L15:
 135:src/main.c    ****                 }
 136:src/main.c    ****             }
 137:src/main.c    ****             if( KEY_UP_NOW( BUTTON_START ) )
 431              		.loc 2 137 17
 432 02d0 E8000000 		call	button_get@PLT
 432      00
 433 02d5 83E008   		andl	$8, %eax
 434              		.loc 2 137 15
 435 02d8 85C0     		testl	%eax, %eax
 436 02da 7404     		je	.L17
 138:src/main.c    ****             {
 139:src/main.c    ****                 startDown = false;
 437              		.loc 2 139 27
 438 02dc C645F300 		movb	$0, -13(%rbp)
 439              	.L17:
 140:src/main.c    ****             }
 141:src/main.c    ****             if( KEY_DOWN_NOW(BUTTON_START) && (startDown == false) )
 440              		.loc 2 141 17
 441 02e0 E8000000 		call	button_get@PLT
 441      00
 442 02e5 83E008   		andl	$8, %eax
 443              		.loc 2 141 15
 444 02e8 85C0     		testl	%eax, %eax
 445 02ea 0F85AA01 		jne	.L28
 445      0000
 446              		.loc 2 141 44 discriminator 1
 447 02f0 807DF300 		cmpb	$0, -13(%rbp)
 448 02f4 0F85A001 		jne	.L28
 448      0000
 142:src/main.c    ****             {
 143:src/main.c    ****                 startDown = true;
 449              		.loc 2 143 27
 450 02fa C645F301 		movb	$1, -13(%rbp)
 144:src/main.c    ****                 draw = false;
 451              		.loc 2 144 22
 452 02fe C645F200 		movb	$0, -14(%rbp)
 145:src/main.c    ****                 drawRectangle( 0, 0, 240, UBound, barColor );
 453              		.loc 2 145 17
 454 0302 0FB70500 		movzwl	barColor(%rip), %eax
 454      000000
 455 0309 0FB7C0   		movzwl	%ax, %eax
 456 030c 4189C0   		movl	%eax, %r8d
 457 030f B9080000 		movl	$8, %ecx
 457      00
 458 0314 BAF00000 		movl	$240, %edx
 458      00
 459 0319 BE000000 		movl	$0, %esi
 459      00
 460 031e BF000000 		movl	$0, %edi
 460      00
 461 0323 E8000000 		call	drawRectangle@PLT
 461      00
 146:src/main.c    ****                 drawRectangle( 0, UBound, 240, (160 - UBound), bgColor );
 462              		.loc 2 146 17
 463 0328 0FB70500 		movzwl	bgColor(%rip), %eax
 463      000000
 464 032f 0FB7C0   		movzwl	%ax, %eax
 465 0332 4189C0   		movl	%eax, %r8d
 466 0335 B9980000 		movl	$152, %ecx
 466      00
 467 033a BAF00000 		movl	$240, %edx
 467      00
 468 033f BE080000 		movl	$8, %esi
 468      00
 469 0344 BF000000 		movl	$0, %edi
 469      00
 470 0349 E8000000 		call	drawRectangle@PLT
 470      00
 147:src/main.c    ****                 state = Game;
 471              		.loc 2 147 23
 472 034e C745F401 		movl	$1, -12(%rbp)
 472      000000
 148:src/main.c    ****             }
 149:src/main.c    ****             break;
 473              		.loc 2 149 13
 474 0355 E9400100 		jmp	.L28
 474      00
 475              	.L9:
 150:src/main.c    **** 
 151:src/main.c    ****         case GameOver:
 152:src/main.c    ****             if( draw == false )
 476              		.loc 2 152 15
 477 035a 807DF200 		cmpb	$0, -14(%rbp)
 478 035e 754B     		jne	.L19
 153:src/main.c    ****             {
 154:src/main.c    ****                 draw = true;
 479              		.loc 2 154 22
 480 0360 C645F201 		movb	$1, -14(%rbp)
 155:src/main.c    ****                 drawScreen( GameOverScreen );
 481              		.loc 2 155 17
 482 0364 488D3D00 		leaq	GameOverScreen(%rip), %rdi
 482      000000
 483 036b E8000000 		call	drawScreen@PLT
 483      00
 156:src/main.c    ****                 sprintf( buffer, "Your score: %d", score );
 484              		.loc 2 156 17
 485 0370 8B050000 		movl	score(%rip), %eax
 485      0000
 486 0376 89C2     		movl	%eax, %edx
 487 0378 488D3500 		leaq	.LC5(%rip), %rsi
 487      000000
 488 037f 488D3D00 		leaq	buffer(%rip), %rdi
 488      000000
 489 0386 B8000000 		movl	$0, %eax
 489      00
 490 038b E8000000 		call	sprintf@PLT
 490      00
 157:src/main.c    ****                 drawString( 70, 102, buffer, RGB( 20, 20, 24 ) );
 491              		.loc 2 157 17
 492 0390 B9946200 		movl	$25236, %ecx
 492      00
 493 0395 488D1500 		leaq	buffer(%rip), %rdx
 493      000000
 494 039c BE660000 		movl	$102, %esi
 494      00
 495 03a1 BF460000 		movl	$70, %edi
 495      00
 496 03a6 E8000000 		call	drawString@PLT
 496      00
 497              	.L19:
 158:src/main.c    ****             }
 159:src/main.c    ****             if( KEY_DOWN_NOW(BUTTON_START) && (startDown == false) )
 498              		.loc 2 159 17
 499 03ab E8000000 		call	button_get@PLT
 499      00
 500 03b0 83E008   		andl	$8, %eax
 501              		.loc 2 159 15
 502 03b3 85C0     		testl	%eax, %eax
 503 03b5 7515     		jne	.L20
 504              		.loc 2 159 44 discriminator 1
 505 03b7 807DF300 		cmpb	$0, -13(%rbp)
 506 03bb 750F     		jne	.L20
 160:src/main.c    ****             {
 161:src/main.c    ****                 startDown = true;
 507              		.loc 2 161 27
 508 03bd C645F301 		movb	$1, -13(%rbp)
 162:src/main.c    ****                 draw = false;
 509              		.loc 2 162 22
 510 03c1 C645F200 		movb	$0, -14(%rbp)
 163:src/main.c    ****                 state = Start;
 511              		.loc 2 163 23
 512 03c5 C745F400 		movl	$0, -12(%rbp)
 512      000000
 513              	.L20:
 164:src/main.c    ****             }
 165:src/main.c    ****             if( KEY_UP_NOW( BUTTON_START ) )
 514              		.loc 2 165 17
 515 03cc E8000000 		call	button_get@PLT
 515      00
 516 03d1 83E008   		andl	$8, %eax
 517              		.loc 2 165 15
 518 03d4 85C0     		testl	%eax, %eax
 519 03d6 0F84C100 		je	.L29
 519      0000
 166:src/main.c    ****             {
 167:src/main.c    ****                 startDown = false;
 520              		.loc 2 167 27
 521 03dc C645F300 		movb	$0, -13(%rbp)
 168:src/main.c    ****             }
 169:src/main.c    ****             break;
 522              		.loc 2 169 13
 523 03e0 E9B80000 		jmp	.L29
 523      00
 524              	.L6:
 170:src/main.c    **** 
 171:src/main.c    ****         case Win:
 172:src/main.c    ****             if( draw == false )
 525              		.loc 2 172 15
 526 03e5 807DF200 		cmpb	$0, -14(%rbp)
 527 03e9 7579     		jne	.L22
 173:src/main.c    ****             {
 174:src/main.c    ****                 draw = true;
 528              		.loc 2 174 22
 529 03eb C645F201 		movb	$1, -14(%rbp)
 175:src/main.c    ****                 drawRectangle( 0, 0, 240, 160, RGB( 0, 0, 5 ) );
 530              		.loc 2 175 17
 531 03ef 41B80014 		movl	$5120, %r8d
 531      0000
 532 03f5 B9A00000 		movl	$160, %ecx
 532      00
 533 03fa BAF00000 		movl	$240, %edx
 533      00
 534 03ff BE000000 		movl	$0, %esi
 534      00
 535 0404 BF000000 		movl	$0, %edi
 535      00
 536 0409 E8000000 		call	drawRectangle@PLT
 536      00
 176:src/main.c    ****                 drawString( 30, 30, "Congratulations! You've won!", RGB( 20, 20, 24 ) );
 537              		.loc 2 176 17
 538 040e B9946200 		movl	$25236, %ecx
 538      00
 539 0413 488D1500 		leaq	.LC6(%rip), %rdx
 539      000000
 540 041a BE1E0000 		movl	$30, %esi
 540      00
 541 041f BF1E0000 		movl	$30, %edi
 541      00
 542 0424 E8000000 		call	drawString@PLT
 542      00
 177:src/main.c    ****                 sprintf( buffer, "Your score: %d", score );
 543              		.loc 2 177 17
 544 0429 8B050000 		movl	score(%rip), %eax
 544      0000
 545 042f 89C2     		movl	%eax, %edx
 546 0431 488D3500 		leaq	.LC5(%rip), %rsi
 546      000000
 547 0438 488D3D00 		leaq	buffer(%rip), %rdi
 547      000000
 548 043f B8000000 		movl	$0, %eax
 548      00
 549 0444 E8000000 		call	sprintf@PLT
 549      00
 178:src/main.c    ****                 drawString( 70, 102, buffer, RGB( 20, 20, 24 ) );
 550              		.loc 2 178 17
 551 0449 B9946200 		movl	$25236, %ecx
 551      00
 552 044e 488D1500 		leaq	buffer(%rip), %rdx
 552      000000
 553 0455 BE660000 		movl	$102, %esi
 553      00
 554 045a BF460000 		movl	$70, %edi
 554      00
 555 045f E8000000 		call	drawString@PLT
 555      00
 556              	.L22:
 179:src/main.c    ****             }
 180:src/main.c    ****             if( KEY_DOWN_NOW(BUTTON_START) && (startDown == false) )
 557              		.loc 2 180 17
 558 0464 E8000000 		call	button_get@PLT
 558      00
 559 0469 83E008   		andl	$8, %eax
 560              		.loc 2 180 15
 561 046c 85C0     		testl	%eax, %eax
 562 046e 7515     		jne	.L23
 563              		.loc 2 180 44 discriminator 1
 564 0470 807DF300 		cmpb	$0, -13(%rbp)
 565 0474 750F     		jne	.L23
 181:src/main.c    ****             {
 182:src/main.c    ****                 startDown = true;
 566              		.loc 2 182 27
 567 0476 C645F301 		movb	$1, -13(%rbp)
 183:src/main.c    ****                 draw = false;
 568              		.loc 2 183 22
 569 047a C645F200 		movb	$0, -14(%rbp)
 184:src/main.c    ****                 state = Start;
 570              		.loc 2 184 23
 571 047e C745F400 		movl	$0, -12(%rbp)
 571      000000
 572              	.L23:
 185:src/main.c    ****             }
 186:src/main.c    ****             if( KEY_UP_NOW( BUTTON_START ) )
 573              		.loc 2 186 17
 574 0485 E8000000 		call	button_get@PLT
 574      00
 575 048a 83E008   		andl	$8, %eax
 576              		.loc 2 186 15
 577 048d 85C0     		testl	%eax, %eax
 578 048f 740F     		je	.L30
 187:src/main.c    ****             {
 188:src/main.c    ****                 startDown = false;
 579              		.loc 2 188 27
 580 0491 C645F300 		movb	$0, -13(%rbp)
 189:src/main.c    ****             }
 190:src/main.c    ****             break;
 581              		.loc 2 190 13
 582 0495 EB09     		jmp	.L30
 583              	.L27:
 106:src/main.c    **** 
 584              		.loc 2 106 13
 585 0497 90       		nop
 586 0498 EB07     		jmp	.L5
 587              	.L28:
 149:src/main.c    **** 
 588              		.loc 2 149 13
 589 049a 90       		nop
 590 049b EB04     		jmp	.L5
 591              	.L29:
 169:src/main.c    **** 
 592              		.loc 2 169 13
 593 049d 90       		nop
 594 049e EB01     		jmp	.L5
 595              	.L30:
 596              		.loc 2 190 13
 597 04a0 90       		nop
 598              	.L5:
 191:src/main.c    **** 
 192:src/main.c    ****         }
 193:src/main.c    ****         gameClock++;
 599              		.loc 2 193 18
 600 04a1 8B050000 		movl	gameClock(%rip), %eax
 600      0000
 601 04a7 83C001   		addl	$1, %eax
 602 04aa 89050000 		movl	%eax, gameClock(%rip)
 602      0000
 194:src/main.c    ****         waitForVblank();
 603              		.loc 2 194 9
 604 04b0 E8000000 		call	waitForVblank@PLT
 604      00
  82:src/main.c    ****         {
 605              		.loc 2 82 9
 606 04b5 E9D0FBFF 		jmp	.L25
 606      FF
 607              		.cfi_endproc
 608              	.LFE7:
 610              		.section	.text.gameOn,"ax",@progbits
 611              		.globl	gameOn
 613              	gameOn:
 614              	.LFB8:
 195:src/main.c    ****     }
 196:src/main.c    ****     return 0;
 197:src/main.c    **** }
 198:src/main.c    **** 
 199:src/main.c    **** GameState gameOn(void)
 200:src/main.c    **** {
 615              		.loc 2 200 1
 616              		.cfi_startproc
 617 0000 F30F1EFA 		endbr64
 618 0004 55       		pushq	%rbp
 619              		.cfi_def_cfa_offset 16
 620              		.cfi_offset 6, -16
 621 0005 4889E5   		movq	%rsp, %rbp
 622              		.cfi_def_cfa_register 6
 623 0008 4883EC40 		subq	$64, %rsp
 201:src/main.c    **** 
 202:src/main.c    ****     char startDown = true;
 624              		.loc 2 202 10
 625 000c C645CB01 		movb	$1, -53(%rbp)
 626              	.L88:
 203:src/main.c    ****     while( 1 )
 204:src/main.c    ****     {
 205:src/main.c    **** 
 206:src/main.c    ****         //Player controls
 207:src/main.c    ****         if( KEY_DOWN_NOW( BUTTON_RIGHT ) )
 627              		.loc 2 207 13
 628 0010 E8000000 		call	button_get@PLT
 628      00
 629 0015 83E010   		andl	$16, %eax
 630              		.loc 2 207 11
 631 0018 85C0     		testl	%eax, %eax
 632 001a 7509     		jne	.L32
 208:src/main.c    ****         {
 209:src/main.c    ****             player.entity.xVel = 2;
 633              		.loc 2 209 32
 634 001c 66C70500 		movw	$2, 18+player(%rip)
 634      00000002 
 634      00
 635              	.L32:
 210:src/main.c    ****         }
 211:src/main.c    ****         if( KEY_DOWN_NOW( BUTTON_LEFT ) )
 636              		.loc 2 211 13
 637 0025 E8000000 		call	button_get@PLT
 637      00
 638 002a 83E020   		andl	$32, %eax
 639              		.loc 2 211 11
 640 002d 85C0     		testl	%eax, %eax
 641 002f 7509     		jne	.L33
 212:src/main.c    ****         {
 213:src/main.c    ****             player.entity.xVel = -2;
 642              		.loc 2 213 32
 643 0031 66C70500 		movw	$-2, 18+player(%rip)
 643      000000FE 
 643      FF
 644              	.L33:
 214:src/main.c    ****         }
 215:src/main.c    ****         if( KEY_DOWN_NOW( BUTTON_UP ) )
 645              		.loc 2 215 13
 646 003a E8000000 		call	button_get@PLT
 646      00
 647 003f 83E040   		andl	$64, %eax
 648              		.loc 2 215 11
 649 0042 85C0     		testl	%eax, %eax
 650 0044 7509     		jne	.L34
 216:src/main.c    ****         {
 217:src/main.c    ****             player.entity.yVel = -2;
 651              		.loc 2 217 32
 652 0046 66C70500 		movw	$-2, 20+player(%rip)
 652      000000FE 
 652      FF
 653              	.L34:
 218:src/main.c    ****         }
 219:src/main.c    ****         if( KEY_DOWN_NOW( BUTTON_DOWN ) )
 654              		.loc 2 219 13
 655 004f E8000000 		call	button_get@PLT
 655      00
 656 0054 25800000 		andl	$128, %eax
 656      00
 657              		.loc 2 219 11
 658 0059 85C0     		testl	%eax, %eax
 659 005b 7509     		jne	.L35
 220:src/main.c    ****         {
 221:src/main.c    ****             player.entity.yVel = 2;
 660              		.loc 2 221 32
 661 005d 66C70500 		movw	$2, 20+player(%rip)
 661      00000002 
 661      00
 662              	.L35:
 222:src/main.c    ****         }
 223:src/main.c    ****         if( KEY_UP_NOW(BUTTON_RIGHT) && KEY_UP_NOW( BUTTON_LEFT ) )
 663              		.loc 2 223 13
 664 0066 E8000000 		call	button_get@PLT
 664      00
 665 006b 83E010   		andl	$16, %eax
 666              		.loc 2 223 11
 667 006e 85C0     		testl	%eax, %eax
 668 0070 7415     		je	.L36
 669              		.loc 2 223 41 discriminator 1
 670 0072 E8000000 		call	button_get@PLT
 670      00
 671 0077 83E020   		andl	$32, %eax
 672              		.loc 2 223 38 discriminator 1
 673 007a 85C0     		testl	%eax, %eax
 674 007c 7409     		je	.L36
 224:src/main.c    ****         {
 225:src/main.c    ****             player.entity.xVel = 0;
 675              		.loc 2 225 32
 676 007e 66C70500 		movw	$0, 18+player(%rip)
 676      00000000 
 676      00
 677              	.L36:
 226:src/main.c    ****         }
 227:src/main.c    ****         if( KEY_UP_NOW(BUTTON_UP) && KEY_UP_NOW( BUTTON_DOWN ) )
 678              		.loc 2 227 13
 679 0087 E8000000 		call	button_get@PLT
 679      00
 680 008c 83E040   		andl	$64, %eax
 681              		.loc 2 227 11
 682 008f 85C0     		testl	%eax, %eax
 683 0091 7417     		je	.L37
 684              		.loc 2 227 38 discriminator 1
 685 0093 E8000000 		call	button_get@PLT
 685      00
 686 0098 25800000 		andl	$128, %eax
 686      00
 687              		.loc 2 227 35 discriminator 1
 688 009d 85C0     		testl	%eax, %eax
 689 009f 7409     		je	.L37
 228:src/main.c    ****         {
 229:src/main.c    ****             player.entity.yVel = 0;
 690              		.loc 2 229 32
 691 00a1 66C70500 		movw	$0, 20+player(%rip)
 691      00000000 
 691      00
 692              	.L37:
 230:src/main.c    ****         }
 231:src/main.c    ****         if( KEY_DOWN_NOW( BUTTON_A ) )
 693              		.loc 2 231 13
 694 00aa E8000000 		call	button_get@PLT
 694      00
 695 00af 83E001   		andl	$1, %eax
 696 00b2 85C0     		testl	%eax, %eax
 697 00b4 7507     		jne	.L38
 698              		.loc 2 231 13 is_stmt 0 discriminator 1
 699 00b6 B8010000 		movl	$1, %eax
 699      00
 700 00bb EB05     		jmp	.L39
 701              	.L38:
 702              		.loc 2 231 13 discriminator 2
 703 00bd B8000000 		movl	$0, %eax
 703      00
 704              	.L39:
 705              		.loc 2 231 11 is_stmt 1 discriminator 4
 706 00c2 84C0     		testb	%al, %al
 707 00c4 7417     		je	.L40
 232:src/main.c    ****         {
 233:src/main.c    ****             if( player.reload <= 0 )
 708              		.loc 2 233 23
 709 00c6 0FB60500 		movzbl	3+player(%rip), %eax
 709      000000
 710              		.loc 2 233 15
 711 00cd 84C0     		testb	%al, %al
 712 00cf 7F0C     		jg	.L40
 234:src/main.c    ****             {
 235:src/main.c    ****                 player.reload = 12;
 713              		.loc 2 235 31
 714 00d1 C6050000 		movb	$12, 3+player(%rip)
 714      00000C
 236:src/main.c    ****                 playerGun();
 715              		.loc 2 236 17
 716 00d8 E8000000 		call	playerGun
 716      00
 717              	.L40:
 237:src/main.c    ****             }
 238:src/main.c    ****         }
 239:src/main.c    ****         if( KEY_DOWN_NOW( BUTTON_B ) )
 718              		.loc 2 239 13
 719 00dd E8000000 		call	button_get@PLT
 719      00
 720 00e2 83E002   		andl	$2, %eax
 721              		.loc 2 239 11
 722 00e5 85C0     		testl	%eax, %eax
 723 00e7 7530     		jne	.L41
 240:src/main.c    ****         {
 241:src/main.c    ****             if( (player.reload <= 0) && (ammo > 0) )
 724              		.loc 2 241 24
 725 00e9 0FB60500 		movzbl	3+player(%rip), %eax
 725      000000
 726              		.loc 2 241 15
 727 00f0 84C0     		testb	%al, %al
 728 00f2 7F25     		jg	.L41
 729              		.loc 2 241 47 discriminator 1
 730 00f4 8B050000 		movl	ammo(%rip), %eax
 730      0000
 731              		.loc 2 241 38 discriminator 1
 732 00fa 85C0     		testl	%eax, %eax
 733 00fc 7E1B     		jle	.L41
 242:src/main.c    ****             {
 243:src/main.c    ****                 ammo--;
 734              		.loc 2 243 21
 735 00fe 8B050000 		movl	ammo(%rip), %eax
 735      0000
 736 0104 83E801   		subl	$1, %eax
 737 0107 89050000 		movl	%eax, ammo(%rip)
 737      0000
 244:src/main.c    ****                 player.reload = 24;
 738              		.loc 2 244 31
 739 010d C6050000 		movb	$24, 3+player(%rip)
 739      000018
 245:src/main.c    ****                 playerRocket();
 740              		.loc 2 245 17
 741 0114 E8000000 		call	playerRocket
 741      00
 742              	.L41:
 246:src/main.c    ****             }
 247:src/main.c    ****         }
 248:src/main.c    ****         if( KEY_DOWN_NOW(BUTTON_START) && (startDown == false) )
 743              		.loc 2 248 13
 744 0119 E8000000 		call	button_get@PLT
 744      00
 745 011e 83E008   		andl	$8, %eax
 746              		.loc 2 248 11
 747 0121 85C0     		testl	%eax, %eax
 748 0123 7510     		jne	.L42
 749              		.loc 2 248 40 discriminator 1
 750 0125 807DCB00 		cmpb	$0, -53(%rbp)
 751 0129 750A     		jne	.L42
 249:src/main.c    ****         {
 250:src/main.c    ****             return Start;
 752              		.loc 2 250 20
 753 012b B8000000 		movl	$0, %eax
 753      00
 754 0130 E9BA0700 		jmp	.L43
 754      00
 755              	.L42:
 251:src/main.c    ****         }
 252:src/main.c    ****         if( KEY_UP_NOW( BUTTON_START ) )
 756              		.loc 2 252 13
 757 0135 E8000000 		call	button_get@PLT
 757      00
 758 013a 83E008   		andl	$8, %eax
 759              		.loc 2 252 11
 760 013d 85C0     		testl	%eax, %eax
 761 013f 7404     		je	.L44
 253:src/main.c    ****         {
 254:src/main.c    ****             startDown = false;
 762              		.loc 2 254 23
 763 0141 C645CB00 		movb	$0, -53(%rbp)
 764              	.L44:
 255:src/main.c    ****         }
 256:src/main.c    **** 
 257:src/main.c    ****         //clean images
 258:src/main.c    ****         washEntity( &(player.entity) );
 765              		.loc 2 258 9
 766 0145 488D3D00 		leaq	8+player(%rip), %rdi
 766      000000
 767 014c E8000000 		call	washEntity
 767      00
 768              	.LBB2:
 259:src/main.c    ****         for( int i = 0; i < numEnemies; i++ )
 769              		.loc 2 259 18
 770 0151 C745D000 		movl	$0, -48(%rbp)
 770      000000
 771              		.loc 2 259 9
 772 0158 EB26     		jmp	.L45
 773              	.L46:
 260:src/main.c    ****         {
 261:src/main.c    ****             washEntity( &((enemies + i)->entity) );
 774              		.loc 2 261 36 discriminator 3
 775 015a 8B45D0   		movl	-48(%rbp), %eax
 776 015d 4898     		cltq
 777 015f 48C1E005 		salq	$5, %rax
 778 0163 4889C2   		movq	%rax, %rdx
 779 0166 488D0500 		leaq	enemies(%rip), %rax
 779      000000
 780 016d 4801D0   		addq	%rdx, %rax
 781              		.loc 2 261 13 discriminator 3
 782 0170 4883C008 		addq	$8, %rax
 783 0174 4889C7   		movq	%rax, %rdi
 784 0177 E8000000 		call	washEntity
 784      00
 259:src/main.c    ****         for( int i = 0; i < numEnemies; i++ )
 785              		.loc 2 259 42 discriminator 3
 786 017c 8345D001 		addl	$1, -48(%rbp)
 787              	.L45:
 259:src/main.c    ****         for( int i = 0; i < numEnemies; i++ )
 788              		.loc 2 259 27 discriminator 1
 789 0180 8B050000 		movl	numEnemies(%rip), %eax
 789      0000
 259:src/main.c    ****         for( int i = 0; i < numEnemies; i++ )
 790              		.loc 2 259 9 discriminator 1
 791 0186 3945D0   		cmpl	%eax, -48(%rbp)
 792 0189 7CCF     		jl	.L46
 793              	.LBE2:
 794              	.LBB3:
 262:src/main.c    ****         }
 263:src/main.c    ****         for( int i = 0; i < numProjectiles; i++ )
 795              		.loc 2 263 18
 796 018b C745D400 		movl	$0, -44(%rbp)
 796      000000
 797              		.loc 2 263 9
 798 0192 EB26     		jmp	.L47
 799              	.L48:
 264:src/main.c    ****         {
 265:src/main.c    ****             washEntity( &((projectiles + i)->entity) );
 800              		.loc 2 265 40 discriminator 3
 801 0194 8B45D4   		movl	-44(%rbp), %eax
 802 0197 4898     		cltq
 803 0199 48C1E005 		salq	$5, %rax
 804 019d 4889C2   		movq	%rax, %rdx
 805 01a0 488D0500 		leaq	projectiles(%rip), %rax
 805      000000
 806 01a7 4801D0   		addq	%rdx, %rax
 807              		.loc 2 265 13 discriminator 3
 808 01aa 4883C008 		addq	$8, %rax
 809 01ae 4889C7   		movq	%rax, %rdi
 810 01b1 E8000000 		call	washEntity
 810      00
 263:src/main.c    ****         {
 811              		.loc 2 263 46 discriminator 3
 812 01b6 8345D401 		addl	$1, -44(%rbp)
 813              	.L47:
 263:src/main.c    ****         {
 814              		.loc 2 263 27 discriminator 1
 815 01ba 8B050000 		movl	numProjectiles(%rip), %eax
 815      0000
 263:src/main.c    ****         {
 816              		.loc 2 263 9 discriminator 1
 817 01c0 3945D4   		cmpl	%eax, -44(%rbp)
 818 01c3 7CCF     		jl	.L48
 819              	.LBE3:
 820              	.LBB4:
 266:src/main.c    ****         }
 267:src/main.c    ****         for( int i = 0; i < numPickups; i++ )
 821              		.loc 2 267 18
 822 01c5 C745D800 		movl	$0, -40(%rbp)
 822      000000
 823              		.loc 2 267 9
 824 01cc EB26     		jmp	.L49
 825              	.L50:
 268:src/main.c    ****         {
 269:src/main.c    ****             washEntity( &((pickups + i)->entity) );
 826              		.loc 2 269 36 discriminator 3
 827 01ce 8B45D8   		movl	-40(%rbp), %eax
 828 01d1 4898     		cltq
 829 01d3 48C1E005 		salq	$5, %rax
 830 01d7 4889C2   		movq	%rax, %rdx
 831 01da 488D0500 		leaq	pickups(%rip), %rax
 831      000000
 832 01e1 4801D0   		addq	%rdx, %rax
 833              		.loc 2 269 13 discriminator 3
 834 01e4 4883C008 		addq	$8, %rax
 835 01e8 4889C7   		movq	%rax, %rdi
 836 01eb E8000000 		call	washEntity
 836      00
 267:src/main.c    ****         {
 837              		.loc 2 267 42 discriminator 3
 838 01f0 8345D801 		addl	$1, -40(%rbp)
 839              	.L49:
 267:src/main.c    ****         {
 840              		.loc 2 267 27 discriminator 1
 841 01f4 8B050000 		movl	numPickups(%rip), %eax
 841      0000
 267:src/main.c    ****         {
 842              		.loc 2 267 9 discriminator 1
 843 01fa 3945D8   		cmpl	%eax, -40(%rbp)
 844 01fd 7CCF     		jl	.L50
 845              	.LBE4:
 270:src/main.c    ****         }
 271:src/main.c    **** 
 272:src/main.c    ****         //Update things
 273:src/main.c    ****         if( level == 1 )
 846              		.loc 2 273 19
 847 01ff 8B050000 		movl	level(%rip), %eax
 847      0000
 848              		.loc 2 273 11
 849 0205 83F801   		cmpl	$1, %eax
 850 0208 7513     		jne	.L51
 274:src/main.c    ****         {
 275:src/main.c    ****             if( level1() == true )
 851              		.loc 2 275 17
 852 020a E8000000 		call	level1
 852      00
 853              		.loc 2 275 15
 854 020f 3C01     		cmpb	$1, %al
 855 0211 7528     		jne	.L52
 276:src/main.c    ****             {
 277:src/main.c    ****                 return NextLevel;
 856              		.loc 2 277 24
 857 0213 B8030000 		movl	$3, %eax
 857      00
 858 0218 E9D20600 		jmp	.L43
 858      00
 859              	.L51:
 278:src/main.c    ****             }
 279:src/main.c    ****         }
 280:src/main.c    ****         else if( level == 2 )
 860              		.loc 2 280 24
 861 021d 8B050000 		movl	level(%rip), %eax
 861      0000
 862              		.loc 2 280 16
 863 0223 83F802   		cmpl	$2, %eax
 864 0226 7513     		jne	.L52
 281:src/main.c    ****         {
 282:src/main.c    ****             if( level2() == true )
 865              		.loc 2 282 17
 866 0228 E8000000 		call	level2
 866      00
 867              		.loc 2 282 15
 868 022d 3C01     		cmpb	$1, %al
 869 022f 750A     		jne	.L52
 283:src/main.c    ****             {
 284:src/main.c    ****                 return Win;
 870              		.loc 2 284 24
 871 0231 B8040000 		movl	$4, %eax
 871      00
 872 0236 E9B40600 		jmp	.L43
 872      00
 873              	.L52:
 285:src/main.c    ****             }
 286:src/main.c    ****         }
 287:src/main.c    ****         if( updatePlayer( &player ) == false )
 874              		.loc 2 287 13
 875 023b 488D3D00 		leaq	player(%rip), %rdi
 875      000000
 876 0242 E8000000 		call	updatePlayer
 876      00
 877              		.loc 2 287 11
 878 0247 84C0     		testb	%al, %al
 879 0249 750A     		jne	.L53
 288:src/main.c    ****         {
 289:src/main.c    ****             return GameOver;
 880              		.loc 2 289 20
 881 024b B8020000 		movl	$2, %eax
 881      00
 882 0250 E99A0600 		jmp	.L43
 882      00
 883              	.L53:
 884              	.LBB5:
 290:src/main.c    ****         }
 291:src/main.c    **** 
 292:src/main.c    ****         //update explosions
 293:src/main.c    ****         for( int i = 0; i < numExplosions; i++ )
 885              		.loc 2 293 18
 886 0255 C745DC00 		movl	$0, -36(%rbp)
 886      000000
 887              		.loc 2 293 9
 888 025c EB2C     		jmp	.L54
 889              	.L55:
 294:src/main.c    ****         {
 295:src/main.c    ****             updateExplosion( explosions + i );
 890              		.loc 2 295 41 discriminator 3
 891 025e 8B45DC   		movl	-36(%rbp), %eax
 892 0261 4863D0   		movslq	%eax, %rdx
 893 0264 4889D0   		movq	%rdx, %rax
 894 0267 4801C0   		addq	%rax, %rax
 895 026a 4801D0   		addq	%rdx, %rax
 896 026d 48C1E003 		salq	$3, %rax
 897 0271 4889C2   		movq	%rax, %rdx
 898              		.loc 2 295 13 discriminator 3
 899 0274 488D0500 		leaq	explosions(%rip), %rax
 899      000000
 900 027b 4801D0   		addq	%rdx, %rax
 901 027e 4889C7   		movq	%rax, %rdi
 902 0281 E8000000 		call	updateExplosion
 902      00
 293:src/main.c    ****         {
 903              		.loc 2 293 45 discriminator 3
 904 0286 8345DC01 		addl	$1, -36(%rbp)
 905              	.L54:
 293:src/main.c    ****         {
 906              		.loc 2 293 27 discriminator 1
 907 028a 8B050000 		movl	numExplosions(%rip), %eax
 907      0000
 293:src/main.c    ****         {
 908              		.loc 2 293 9 discriminator 1
 909 0290 3945DC   		cmpl	%eax, -36(%rbp)
 910 0293 7CC9     		jl	.L55
 911              	.LBE5:
 912              	.LBB6:
 296:src/main.c    ****         }
 297:src/main.c    **** 
 298:src/main.c    ****         //update enemy movements and check for collisions with player
 299:src/main.c    ****         for( int i = 0; i < numEnemies; i++ )
 913              		.loc 2 299 18
 914 0295 C745E000 		movl	$0, -32(%rbp)
 914      000000
 915              		.loc 2 299 9
 916 029c E9160100 		jmp	.L56
 916      00
 917              	.L60:
 918              	.LBB7:
 300:src/main.c    ****         {
 301:src/main.c    ****             updateShip( enemies + i );
 919              		.loc 2 301 33
 920 02a1 8B45E0   		movl	-32(%rbp), %eax
 921 02a4 4898     		cltq
 922 02a6 48C1E005 		salq	$5, %rax
 923 02aa 4889C2   		movq	%rax, %rdx
 924              		.loc 2 301 13
 925 02ad 488D0500 		leaq	enemies(%rip), %rax
 925      000000
 926 02b4 4801D0   		addq	%rdx, %rax
 927 02b7 4889C7   		movq	%rax, %rdi
 928 02ba E8000000 		call	updateShip
 928      00
 302:src/main.c    ****             char collision = detectCollision( (enemies + i)->entity, player.entity );
 929              		.loc 2 302 56
 930 02bf 8B45E0   		movl	-32(%rbp), %eax
 931 02c2 4898     		cltq
 932 02c4 48C1E005 		salq	$5, %rax
 933 02c8 4889C2   		movq	%rax, %rdx
 934 02cb 488D0500 		leaq	enemies(%rip), %rax
 934      000000
 935 02d2 4801D0   		addq	%rdx, %rax
 936              		.loc 2 302 30
 937 02d5 FF350000 		pushq	24+player(%rip)
 937      0000
 938 02db FF350000 		pushq	16+player(%rip)
 938      0000
 939 02e1 FF350000 		pushq	8+player(%rip)
 939      0000
 940 02e7 FF7018   		pushq	24(%rax)
 941 02ea FF7010   		pushq	16(%rax)
 942 02ed FF7008   		pushq	8(%rax)
 943 02f0 E8000000 		call	detectCollision
 943      00
 944 02f5 4883C430 		addq	$48, %rsp
 945 02f9 8845CF   		movb	%al, -49(%rbp)
 303:src/main.c    ****             if( collision )
 946              		.loc 2 303 15
 947 02fc 807DCF00 		cmpb	$0, -49(%rbp)
 948 0300 0F84AD00 		je	.L57
 948      0000
 304:src/main.c    ****             {
 305:src/main.c    ****                 if( (enemies + i)->ai == 4 )
 949              		.loc 2 305 30
 950 0306 8B45E0   		movl	-32(%rbp), %eax
 951 0309 4898     		cltq
 952 030b 48C1E005 		salq	$5, %rax
 953 030f 4889C2   		movq	%rax, %rdx
 954 0312 488D0500 		leaq	enemies(%rip), %rax
 954      000000
 955 0319 4801D0   		addq	%rdx, %rax
 956              		.loc 2 305 34
 957 031c 0FB64002 		movzbl	2(%rax), %eax
 958              		.loc 2 305 19
 959 0320 3C04     		cmpb	$4, %al
 960 0322 7513     		jne	.L58
 306:src/main.c    ****                 {
 307:src/main.c    ****                     player.health -= 30;
 961              		.loc 2 307 35
 962 0324 0FB70500 		movzwl	player(%rip), %eax
 962      000000
 963 032b 83E81E   		subl	$30, %eax
 964 032e 66890500 		movw	%ax, player(%rip)
 964      000000
 965 0335 EB2D     		jmp	.L59
 966              	.L58:
 308:src/main.c    ****                 }
 309:src/main.c    ****                 else
 310:src/main.c    ****                 {
 311:src/main.c    ****                     player.health -= (enemies + i)->health;
 967              		.loc 2 311 35
 968 0337 0FB70500 		movzwl	player(%rip), %eax
 968      000000
 969 033e 89C1     		movl	%eax, %ecx
 970              		.loc 2 311 47
 971 0340 8B45E0   		movl	-32(%rbp), %eax
 972 0343 4898     		cltq
 973 0345 48C1E005 		salq	$5, %rax
 974 0349 4889C2   		movq	%rax, %rdx
 975 034c 488D0500 		leaq	enemies(%rip), %rax
 975      000000
 976 0353 4801D0   		addq	%rdx, %rax
 977              		.loc 2 311 51
 978 0356 0FB700   		movzwl	(%rax), %eax
 979              		.loc 2 311 35
 980 0359 29C1     		subl	%eax, %ecx
 981 035b 89C8     		movl	%ecx, %eax
 982 035d 66890500 		movw	%ax, player(%rip)
 982      000000
 983              	.L59:
 312:src/main.c    ****                 }
 313:src/main.c    ****                 (enemies + i)->health -= 50;
 984              		.loc 2 313 39
 985 0364 8B45E0   		movl	-32(%rbp), %eax
 986 0367 4898     		cltq
 987 0369 48C1E005 		salq	$5, %rax
 988 036d 4889C2   		movq	%rax, %rdx
 989 0370 488D0500 		leaq	enemies(%rip), %rax
 989      000000
 990 0377 4801D0   		addq	%rdx, %rax
 991 037a 0FB700   		movzwl	(%rax), %eax
 992 037d 8D50CE   		leal	-50(%rax), %edx
 993 0380 8B45E0   		movl	-32(%rbp), %eax
 994 0383 4898     		cltq
 995 0385 48C1E005 		salq	$5, %rax
 996 0389 4889C1   		movq	%rax, %rcx
 997 038c 488D0500 		leaq	enemies(%rip), %rax
 997      000000
 998 0393 4801C8   		addq	%rcx, %rax
 999 0396 668910   		movw	%dx, (%rax)
 314:src/main.c    ****                 (enemies + i)->entity.removed = true;
 1000              		.loc 2 314 26
 1001 0399 8B45E0   		movl	-32(%rbp), %eax
 1002 039c 4898     		cltq
 1003 039e 48C1E005 		salq	$5, %rax
 1004 03a2 4889C2   		movq	%rax, %rdx
 1005 03a5 488D0500 		leaq	enemies(%rip), %rax
 1005      000000
 1006 03ac 4801D0   		addq	%rdx, %rax
 1007              		.loc 2 314 47
 1008 03af C6401701 		movb	$1, 23(%rax)
 1009              	.L57:
 1010              	.LBE7:
 299:src/main.c    ****         {
 1011              		.loc 2 299 42 discriminator 2
 1012 03b3 8345E001 		addl	$1, -32(%rbp)
 1013              	.L56:
 299:src/main.c    ****         {
 1014              		.loc 2 299 27 discriminator 1
 1015 03b7 8B050000 		movl	numEnemies(%rip), %eax
 1015      0000
 299:src/main.c    ****         {
 1016              		.loc 2 299 9 discriminator 1
 1017 03bd 3945E0   		cmpl	%eax, -32(%rbp)
 1018 03c0 0F8CDBFE 		jl	.L60
 1018      FFFF
 1019              	.LBE6:
 1020              	.LBB8:
 315:src/main.c    ****             }
 316:src/main.c    ****         }
 317:src/main.c    **** 
 318:src/main.c    ****         //update projectiles
 319:src/main.c    ****         for( int i = 0; i < numProjectiles; i++ )
 1021              		.loc 2 319 18
 1022 03c6 C745E400 		movl	$0, -28(%rbp)
 1022      000000
 1023              		.loc 2 319 9
 1024 03cd E9CD0100 		jmp	.L61
 1024      00
 1025              	.L67:
 320:src/main.c    ****         {
 321:src/main.c    ****             updateProjectile( projectiles + i );
 1026              		.loc 2 321 43
 1027 03d2 8B45E4   		movl	-28(%rbp), %eax
 1028 03d5 4898     		cltq
 1029 03d7 48C1E005 		salq	$5, %rax
 1030 03db 4889C2   		movq	%rax, %rdx
 1031              		.loc 2 321 13
 1032 03de 488D0500 		leaq	projectiles(%rip), %rax
 1032      000000
 1033 03e5 4801D0   		addq	%rdx, %rax
 1034 03e8 4889C7   		movq	%rax, %rdi
 1035 03eb E8000000 		call	updateProjectile
 1035      00
 322:src/main.c    ****             if( (projectiles + i)->team == 0 )
 1036              		.loc 2 322 30
 1037 03f0 8B45E4   		movl	-28(%rbp), %eax
 1038 03f3 4898     		cltq
 1039 03f5 48C1E005 		salq	$5, %rax
 1040 03f9 4889C2   		movq	%rax, %rdx
 1041 03fc 488D0500 		leaq	projectiles(%rip), %rax
 1041      000000
 1042 0403 4801D0   		addq	%rdx, %rax
 1043              		.loc 2 322 34
 1044 0406 0FB64004 		movzbl	4(%rax), %eax
 1045              		.loc 2 322 15
 1046 040a 84C0     		testb	%al, %al
 1047 040c 0F85DE00 		jne	.L62
 1047      0000
 1048              	.LBB9:
 323:src/main.c    ****             {
 324:src/main.c    ****                 for( int j = 0; j < numEnemies; j++ )
 1049              		.loc 2 324 26
 1050 0412 C745E800 		movl	$0, -24(%rbp)
 1050      000000
 1051              		.loc 2 324 17
 1052 0419 E9BE0000 		jmp	.L63
 1052      00
 1053              	.L65:
 1054              	.LBB10:
 325:src/main.c    ****                 {
 326:src/main.c    ****                     char collision = detectCollision( (enemies + j)->entity, (projectiles + i)->ent
 1055              		.loc 2 326 91
 1056 041e 8B45E4   		movl	-28(%rbp), %eax
 1057 0421 4898     		cltq
 1058 0423 48C1E005 		salq	$5, %rax
 1059 0427 4889C2   		movq	%rax, %rdx
 1060 042a 488D0500 		leaq	projectiles(%rip), %rax
 1060      000000
 1061 0431 4801C2   		addq	%rax, %rdx
 1062              		.loc 2 326 64
 1063 0434 8B45E8   		movl	-24(%rbp), %eax
 1064 0437 4898     		cltq
 1065 0439 48C1E005 		salq	$5, %rax
 1066 043d 4889C1   		movq	%rax, %rcx
 1067 0440 488D0500 		leaq	enemies(%rip), %rax
 1067      000000
 1068 0447 4801C8   		addq	%rcx, %rax
 1069              		.loc 2 326 38
 1070 044a FF7218   		pushq	24(%rdx)
 1071 044d FF7210   		pushq	16(%rdx)
 1072 0450 FF7208   		pushq	8(%rdx)
 1073 0453 FF7018   		pushq	24(%rax)
 1074 0456 FF7010   		pushq	16(%rax)
 1075 0459 FF7008   		pushq	8(%rax)
 1076 045c E8000000 		call	detectCollision
 1076      00
 1077 0461 4883C430 		addq	$48, %rsp
 1078 0465 8845CE   		movb	%al, -50(%rbp)
 327:src/main.c    ****                     if( collision )
 1079              		.loc 2 327 23
 1080 0468 807DCE00 		cmpb	$0, -50(%rbp)
 1081 046c 746A     		je	.L64
 328:src/main.c    ****                     {
 329:src/main.c    ****                         (enemies + j)->health -= (projectiles + i)->damage;
 1082              		.loc 2 329 47
 1083 046e 8B45E8   		movl	-24(%rbp), %eax
 1084 0471 4898     		cltq
 1085 0473 48C1E005 		salq	$5, %rax
 1086 0477 4889C2   		movq	%rax, %rdx
 1087 047a 488D0500 		leaq	enemies(%rip), %rax
 1087      000000
 1088 0481 4801D0   		addq	%rdx, %rax
 1089 0484 0FB700   		movzwl	(%rax), %eax
 1090 0487 89C1     		movl	%eax, %ecx
 1091              		.loc 2 329 63
 1092 0489 8B45E4   		movl	-28(%rbp), %eax
 1093 048c 4898     		cltq
 1094 048e 48C1E005 		salq	$5, %rax
 1095 0492 4889C2   		movq	%rax, %rdx
 1096 0495 488D0500 		leaq	projectiles(%rip), %rax
 1096      000000
 1097 049c 4801D0   		addq	%rdx, %rax
 1098              		.loc 2 329 67
 1099 049f 8B00     		movl	(%rax), %eax
 1100              		.loc 2 329 47
 1101 04a1 29C1     		subl	%eax, %ecx
 1102 04a3 89CA     		movl	%ecx, %edx
 1103 04a5 8B45E8   		movl	-24(%rbp), %eax
 1104 04a8 4898     		cltq
 1105 04aa 48C1E005 		salq	$5, %rax
 1106 04ae 4889C1   		movq	%rax, %rcx
 1107 04b1 488D0500 		leaq	enemies(%rip), %rax
 1107      000000
 1108 04b8 4801C8   		addq	%rcx, %rax
 1109 04bb 668910   		movw	%dx, (%rax)
 330:src/main.c    ****                         (projectiles + i)->entity.removed = true;
 1110              		.loc 2 330 38
 1111 04be 8B45E4   		movl	-28(%rbp), %eax
 1112 04c1 4898     		cltq
 1113 04c3 48C1E005 		salq	$5, %rax
 1114 04c7 4889C2   		movq	%rax, %rdx
 1115 04ca 488D0500 		leaq	projectiles(%rip), %rax
 1115      000000
 1116 04d1 4801D0   		addq	%rdx, %rax
 1117              		.loc 2 330 59
 1118 04d4 C6401701 		movb	$1, 23(%rax)
 1119              	.L64:
 1120              	.LBE10:
 324:src/main.c    ****                 {
 1121              		.loc 2 324 50 discriminator 2
 1122 04d8 8345E801 		addl	$1, -24(%rbp)
 1123              	.L63:
 324:src/main.c    ****                 {
 1124              		.loc 2 324 35 discriminator 1
 1125 04dc 8B050000 		movl	numEnemies(%rip), %eax
 1125      0000
 324:src/main.c    ****                 {
 1126              		.loc 2 324 17 discriminator 1
 1127 04e2 3945E8   		cmpl	%eax, -24(%rbp)
 1128 04e5 0F8C33FF 		jl	.L65
 1128      FFFF
 1129 04eb E9AB0000 		jmp	.L66
 1129      00
 1130              	.L62:
 1131              	.LBE9:
 331:src/main.c    ****                     }
 332:src/main.c    ****                 }
 333:src/main.c    ****             }
 334:src/main.c    ****             else if( (projectiles + i)->team == 1 )
 1132              		.loc 2 334 35
 1133 04f0 8B45E4   		movl	-28(%rbp), %eax
 1134 04f3 4898     		cltq
 1135 04f5 48C1E005 		salq	$5, %rax
 1136 04f9 4889C2   		movq	%rax, %rdx
 1137 04fc 488D0500 		leaq	projectiles(%rip), %rax
 1137      000000
 1138 0503 4801D0   		addq	%rdx, %rax
 1139              		.loc 2 334 39
 1140 0506 0FB64004 		movzbl	4(%rax), %eax
 1141              		.loc 2 334 20
 1142 050a 3C01     		cmpb	$1, %al
 1143 050c 0F858900 		jne	.L66
 1143      0000
 1144              	.LBB11:
 335:src/main.c    ****             {
 336:src/main.c    ****                 char collision = detectCollision( player.entity, (projectiles + i)->entity );
 1145              		.loc 2 336 79
 1146 0512 8B45E4   		movl	-28(%rbp), %eax
 1147 0515 4898     		cltq
 1148 0517 48C1E005 		salq	$5, %rax
 1149 051b 4889C2   		movq	%rax, %rdx
 1150 051e 488D0500 		leaq	projectiles(%rip), %rax
 1150      000000
 1151 0525 4801D0   		addq	%rdx, %rax
 1152              		.loc 2 336 34
 1153 0528 FF7018   		pushq	24(%rax)
 1154 052b FF7010   		pushq	16(%rax)
 1155 052e FF7008   		pushq	8(%rax)
 1156 0531 FF350000 		pushq	24+player(%rip)
 1156      0000
 1157 0537 FF350000 		pushq	16+player(%rip)
 1157      0000
 1158 053d FF350000 		pushq	8+player(%rip)
 1158      0000
 1159 0543 E8000000 		call	detectCollision
 1159      00
 1160 0548 4883C430 		addq	$48, %rsp
 1161 054c 8845CD   		movb	%al, -51(%rbp)
 337:src/main.c    ****                 if( collision )
 1162              		.loc 2 337 19
 1163 054f 807DCD00 		cmpb	$0, -51(%rbp)
 1164 0553 7446     		je	.L66
 338:src/main.c    ****                 {
 339:src/main.c    ****                     player.health -= (projectiles + i)->damage;
 1165              		.loc 2 339 35
 1166 0555 0FB70500 		movzwl	player(%rip), %eax
 1166      000000
 1167 055c 89C1     		movl	%eax, %ecx
 1168              		.loc 2 339 51
 1169 055e 8B45E4   		movl	-28(%rbp), %eax
 1170 0561 4898     		cltq
 1171 0563 48C1E005 		salq	$5, %rax
 1172 0567 4889C2   		movq	%rax, %rdx
 1173 056a 488D0500 		leaq	projectiles(%rip), %rax
 1173      000000
 1174 0571 4801D0   		addq	%rdx, %rax
 1175              		.loc 2 339 55
 1176 0574 8B00     		movl	(%rax), %eax
 1177              		.loc 2 339 35
 1178 0576 29C1     		subl	%eax, %ecx
 1179 0578 89C8     		movl	%ecx, %eax
 1180 057a 66890500 		movw	%ax, player(%rip)
 1180      000000
 340:src/main.c    ****                     (projectiles + i)->entity.removed = true;
 1181              		.loc 2 340 34
 1182 0581 8B45E4   		movl	-28(%rbp), %eax
 1183 0584 4898     		cltq
 1184 0586 48C1E005 		salq	$5, %rax
 1185 058a 4889C2   		movq	%rax, %rdx
 1186 058d 488D0500 		leaq	projectiles(%rip), %rax
 1186      000000
 1187 0594 4801D0   		addq	%rdx, %rax
 1188              		.loc 2 340 55
 1189 0597 C6401701 		movb	$1, 23(%rax)
 1190              	.L66:
 1191              	.LBE11:
 319:src/main.c    ****         {
 1192              		.loc 2 319 46 discriminator 2
 1193 059b 8345E401 		addl	$1, -28(%rbp)
 1194              	.L61:
 319:src/main.c    ****         {
 1195              		.loc 2 319 27 discriminator 1
 1196 059f 8B050000 		movl	numProjectiles(%rip), %eax
 1196      0000
 319:src/main.c    ****         {
 1197              		.loc 2 319 9 discriminator 1
 1198 05a5 3945E4   		cmpl	%eax, -28(%rbp)
 1199 05a8 0F8C24FE 		jl	.L67
 1199      FFFF
 1200              	.LBE8:
 1201              	.LBB12:
 341:src/main.c    ****                 }
 342:src/main.c    ****             }
 343:src/main.c    ****         }
 344:src/main.c    **** 
 345:src/main.c    ****         //update pickups and check for collisions
 346:src/main.c    ****         for( int i = 0; i < numPickups; i++ )
 1202              		.loc 2 346 18
 1203 05ae C745EC00 		movl	$0, -20(%rbp)
 1203      000000
 1204              		.loc 2 346 9
 1205 05b5 E9520100 		jmp	.L68
 1205      00
 1206              	.L75:
 1207              	.LBB13:
 347:src/main.c    ****         {
 348:src/main.c    ****             updatePickup( pickups + i );
 1208              		.loc 2 348 35
 1209 05ba 8B45EC   		movl	-20(%rbp), %eax
 1210 05bd 4898     		cltq
 1211 05bf 48C1E005 		salq	$5, %rax
 1212 05c3 4889C2   		movq	%rax, %rdx
 1213              		.loc 2 348 13
 1214 05c6 488D0500 		leaq	pickups(%rip), %rax
 1214      000000
 1215 05cd 4801D0   		addq	%rdx, %rax
 1216 05d0 4889C7   		movq	%rax, %rdi
 1217 05d3 E8000000 		call	updatePickup
 1217      00
 349:src/main.c    ****             char collision = detectCollision( (pickups + i)->entity, player.entity );
 1218              		.loc 2 349 56
 1219 05d8 8B45EC   		movl	-20(%rbp), %eax
 1220 05db 4898     		cltq
 1221 05dd 48C1E005 		salq	$5, %rax
 1222 05e1 4889C2   		movq	%rax, %rdx
 1223 05e4 488D0500 		leaq	pickups(%rip), %rax
 1223      000000
 1224 05eb 4801D0   		addq	%rdx, %rax
 1225              		.loc 2 349 30
 1226 05ee FF350000 		pushq	24+player(%rip)
 1226      0000
 1227 05f4 FF350000 		pushq	16+player(%rip)
 1227      0000
 1228 05fa FF350000 		pushq	8+player(%rip)
 1228      0000
 1229 0600 FF7018   		pushq	24(%rax)
 1230 0603 FF7010   		pushq	16(%rax)
 1231 0606 FF7008   		pushq	8(%rax)
 1232 0609 E8000000 		call	detectCollision
 1232      00
 1233 060e 4883C430 		addq	$48, %rsp
 1234 0612 8845CC   		movb	%al, -52(%rbp)
 350:src/main.c    ****             if( collision )
 1235              		.loc 2 350 15
 1236 0615 807DCC00 		cmpb	$0, -52(%rbp)
 1237 0619 0F84E900 		je	.L69
 1237      0000
 351:src/main.c    ****             {
 352:src/main.c    ****                 if( (pickups + i)->type == Health )
 1238              		.loc 2 352 30
 1239 061f 8B45EC   		movl	-20(%rbp), %eax
 1240 0622 4898     		cltq
 1241 0624 48C1E005 		salq	$5, %rax
 1242 0628 4889C2   		movq	%rax, %rdx
 1243 062b 488D0500 		leaq	pickups(%rip), %rax
 1243      000000
 1244 0632 4801D0   		addq	%rdx, %rax
 1245              		.loc 2 352 34
 1246 0635 8B00     		movl	(%rax), %eax
 1247              		.loc 2 352 19
 1248 0637 85C0     		testl	%eax, %eax
 1249 0639 751F     		jne	.L70
 353:src/main.c    ****                 {
 354:src/main.c    ****                     if( player.health < 50 )
 1250              		.loc 2 354 31
 1251 063b 0FB70500 		movzwl	player(%rip), %eax
 1251      000000
 1252              		.loc 2 354 23
 1253 0642 6683F831 		cmpw	$49, %ax
 1254 0646 0F8FA200 		jg	.L71
 1254      0000
 355:src/main.c    ****                     {
 356:src/main.c    ****                         player.health = 50;
 1255              		.loc 2 356 39
 1256 064c 66C70500 		movw	$50, player(%rip)
 1256      00000032 
 1256      00
 1257 0655 E9940000 		jmp	.L71
 1257      00
 1258              	.L70:
 357:src/main.c    ****                     }
 358:src/main.c    ****                 }
 359:src/main.c    ****                 else if( (pickups + i)->type == Shotgun )
 1259              		.loc 2 359 35
 1260 065a 8B45EC   		movl	-20(%rbp), %eax
 1261 065d 4898     		cltq
 1262 065f 48C1E005 		salq	$5, %rax
 1263 0663 4889C2   		movq	%rax, %rdx
 1264 0666 488D0500 		leaq	pickups(%rip), %rax
 1264      000000
 1265 066d 4801D0   		addq	%rdx, %rax
 1266              		.loc 2 359 39
 1267 0670 8B00     		movl	(%rax), %eax
 1268              		.loc 2 359 24
 1269 0672 83F802   		cmpl	$2, %eax
 1270 0675 750C     		jne	.L72
 360:src/main.c    ****                 {
 361:src/main.c    ****                     shotgunTime = 600;
 1271              		.loc 2 361 33
 1272 0677 C7050000 		movl	$600, shotgunTime(%rip)
 1272      00005802 
 1272      0000
 1273 0681 EB6B     		jmp	.L71
 1274              	.L72:
 362:src/main.c    ****                 }
 363:src/main.c    ****                 else if( (pickups + i)->type == Ammo )
 1275              		.loc 2 363 35
 1276 0683 8B45EC   		movl	-20(%rbp), %eax
 1277 0686 4898     		cltq
 1278 0688 48C1E005 		salq	$5, %rax
 1279 068c 4889C2   		movq	%rax, %rdx
 1280 068f 488D0500 		leaq	pickups(%rip), %rax
 1280      000000
 1281 0696 4801D0   		addq	%rdx, %rax
 1282              		.loc 2 363 39
 1283 0699 8B00     		movl	(%rax), %eax
 1284              		.loc 2 363 24
 1285 069b 83F801   		cmpl	$1, %eax
 1286 069e 7528     		jne	.L73
 364:src/main.c    ****                 {
 365:src/main.c    ****                     if( ammo < 5 )
 1287              		.loc 2 365 30
 1288 06a0 8B050000 		movl	ammo(%rip), %eax
 1288      0000
 1289              		.loc 2 365 23
 1290 06a6 83F804   		cmpl	$4, %eax
 1291 06a9 7F11     		jg	.L74
 366:src/main.c    ****                     {
 367:src/main.c    ****                         ammo += 5;
 1292              		.loc 2 367 30
 1293 06ab 8B050000 		movl	ammo(%rip), %eax
 1293      0000
 1294 06b1 83C005   		addl	$5, %eax
 1295 06b4 89050000 		movl	%eax, ammo(%rip)
 1295      0000
 1296 06ba EB32     		jmp	.L71
 1297              	.L74:
 368:src/main.c    ****                     }
 369:src/main.c    ****                     else
 370:src/main.c    ****                     {
 371:src/main.c    ****                         ammo = 9;
 1298              		.loc 2 371 30
 1299 06bc C7050000 		movl	$9, ammo(%rip)
 1299      00000900 
 1299      0000
 1300 06c6 EB26     		jmp	.L71
 1301              	.L73:
 372:src/main.c    ****                     }
 373:src/main.c    ****                 }
 374:src/main.c    ****                 else if( (pickups + i)->type == Shield )
 1302              		.loc 2 374 35
 1303 06c8 8B45EC   		movl	-20(%rbp), %eax
 1304 06cb 4898     		cltq
 1305 06cd 48C1E005 		salq	$5, %rax
 1306 06d1 4889C2   		movq	%rax, %rdx
 1307 06d4 488D0500 		leaq	pickups(%rip), %rax
 1307      000000
 1308 06db 4801D0   		addq	%rdx, %rax
 1309              		.loc 2 374 39
 1310 06de 8B00     		movl	(%rax), %eax
 1311              		.loc 2 374 24
 1312 06e0 83F803   		cmpl	$3, %eax
 1313 06e3 7509     		jne	.L71
 375:src/main.c    ****                 {
 376:src/main.c    ****                     player.health = 100;
 1314              		.loc 2 376 35
 1315 06e5 66C70500 		movw	$100, player(%rip)
 1315      00000064 
 1315      00
 1316              	.L71:
 377:src/main.c    ****                 }
 378:src/main.c    ****                 (pickups + i)->entity.removed = true;
 1317              		.loc 2 378 26
 1318 06ee 8B45EC   		movl	-20(%rbp), %eax
 1319 06f1 4898     		cltq
 1320 06f3 48C1E005 		salq	$5, %rax
 1321 06f7 4889C2   		movq	%rax, %rdx
 1322 06fa 488D0500 		leaq	pickups(%rip), %rax
 1322      000000
 1323 0701 4801D0   		addq	%rdx, %rax
 1324              		.loc 2 378 47
 1325 0704 C6401701 		movb	$1, 23(%rax)
 1326              	.L69:
 1327              	.LBE13:
 346:src/main.c    ****         {
 1328              		.loc 2 346 42 discriminator 2
 1329 0708 8345EC01 		addl	$1, -20(%rbp)
 1330              	.L68:
 346:src/main.c    ****         {
 1331              		.loc 2 346 27 discriminator 1
 1332 070c 8B050000 		movl	numPickups(%rip), %eax
 1332      0000
 346:src/main.c    ****         {
 1333              		.loc 2 346 9 discriminator 1
 1334 0712 3945EC   		cmpl	%eax, -20(%rbp)
 1335 0715 0F8C9FFE 		jl	.L75
 1335      FFFF
 1336              	.LBE12:
 1337              	.LBB14:
 379:src/main.c    ****             }
 380:src/main.c    ****         }
 381:src/main.c    **** 
 382:src/main.c    ****         //Remove destroyed projectiles
 383:src/main.c    ****         for( int i = 0; i < numProjectiles; i++ )
 1338              		.loc 2 383 18
 1339 071b C745F000 		movl	$0, -16(%rbp)
 1339      000000
 1340              		.loc 2 383 9
 1341 0722 EB44     		jmp	.L76
 1342              	.L78:
 384:src/main.c    ****         {
 385:src/main.c    ****             if( (projectiles + i)->entity.removed == true )
 1343              		.loc 2 385 30
 1344 0724 8B45F0   		movl	-16(%rbp), %eax
 1345 0727 4898     		cltq
 1346 0729 48C1E005 		salq	$5, %rax
 1347 072d 4889C2   		movq	%rax, %rdx
 1348 0730 488D0500 		leaq	projectiles(%rip), %rax
 1348      000000
 1349 0737 4801D0   		addq	%rdx, %rax
 1350              		.loc 2 385 42
 1351 073a 0FB64017 		movzbl	23(%rax), %eax
 1352              		.loc 2 385 15
 1353 073e 3C01     		cmpb	$1, %al
 1354 0740 7522     		jne	.L77
 386:src/main.c    ****             {
 387:src/main.c    ****                 removeProjectile( projectiles + i );
 1355              		.loc 2 387 47
 1356 0742 8B45F0   		movl	-16(%rbp), %eax
 1357 0745 4898     		cltq
 1358 0747 48C1E005 		salq	$5, %rax
 1359 074b 4889C2   		movq	%rax, %rdx
 1360              		.loc 2 387 17
 1361 074e 488D0500 		leaq	projectiles(%rip), %rax
 1361      000000
 1362 0755 4801D0   		addq	%rdx, %rax
 1363 0758 4889C7   		movq	%rax, %rdi
 1364 075b E8000000 		call	removeProjectile
 1364      00
 388:src/main.c    ****                 i--;
 1365              		.loc 2 388 18
 1366 0760 836DF001 		subl	$1, -16(%rbp)
 1367              	.L77:
 383:src/main.c    ****         {
 1368              		.loc 2 383 46 discriminator 2
 1369 0764 8345F001 		addl	$1, -16(%rbp)
 1370              	.L76:
 383:src/main.c    ****         {
 1371              		.loc 2 383 27 discriminator 1
 1372 0768 8B050000 		movl	numProjectiles(%rip), %eax
 1372      0000
 383:src/main.c    ****         {
 1373              		.loc 2 383 9 discriminator 1
 1374 076e 3945F0   		cmpl	%eax, -16(%rbp)
 1375 0771 7CB1     		jl	.L78
 1376              	.LBE14:
 1377              	.LBB15:
 389:src/main.c    ****             }
 390:src/main.c    ****         }
 391:src/main.c    **** 
 392:src/main.c    ****         //Remove destroyed ships
 393:src/main.c    ****         for( int i = 0; i < numEnemies; i++ )
 1378              		.loc 2 393 18
 1379 0773 C745F400 		movl	$0, -12(%rbp)
 1379      000000
 1380              		.loc 2 393 9
 1381 077a EB44     		jmp	.L79
 1382              	.L81:
 394:src/main.c    ****         {
 395:src/main.c    ****             if( (enemies + i)->entity.removed == true )
 1383              		.loc 2 395 26
 1384 077c 8B45F4   		movl	-12(%rbp), %eax
 1385 077f 4898     		cltq
 1386 0781 48C1E005 		salq	$5, %rax
 1387 0785 4889C2   		movq	%rax, %rdx
 1388 0788 488D0500 		leaq	enemies(%rip), %rax
 1388      000000
 1389 078f 4801D0   		addq	%rdx, %rax
 1390              		.loc 2 395 38
 1391 0792 0FB64017 		movzbl	23(%rax), %eax
 1392              		.loc 2 395 15
 1393 0796 3C01     		cmpb	$1, %al
 1394 0798 7522     		jne	.L80
 396:src/main.c    ****             {
 397:src/main.c    ****                 destroyEnemy( enemies + i );
 1395              		.loc 2 397 39
 1396 079a 8B45F4   		movl	-12(%rbp), %eax
 1397 079d 4898     		cltq
 1398 079f 48C1E005 		salq	$5, %rax
 1399 07a3 4889C2   		movq	%rax, %rdx
 1400              		.loc 2 397 17
 1401 07a6 488D0500 		leaq	enemies(%rip), %rax
 1401      000000
 1402 07ad 4801D0   		addq	%rdx, %rax
 1403 07b0 4889C7   		movq	%rax, %rdi
 1404 07b3 E8000000 		call	destroyEnemy
 1404      00
 398:src/main.c    ****                 i--;
 1405              		.loc 2 398 18
 1406 07b8 836DF401 		subl	$1, -12(%rbp)
 1407              	.L80:
 393:src/main.c    ****         {
 1408              		.loc 2 393 42 discriminator 2
 1409 07bc 8345F401 		addl	$1, -12(%rbp)
 1410              	.L79:
 393:src/main.c    ****         {
 1411              		.loc 2 393 27 discriminator 1
 1412 07c0 8B050000 		movl	numEnemies(%rip), %eax
 1412      0000
 393:src/main.c    ****         {
 1413              		.loc 2 393 9 discriminator 1
 1414 07c6 3945F4   		cmpl	%eax, -12(%rbp)
 1415 07c9 7CB1     		jl	.L81
 1416              	.LBE15:
 1417              	.LBB16:
 399:src/main.c    ****             }
 400:src/main.c    ****         }
 401:src/main.c    **** 
 402:src/main.c    ****         //Remove explosions
 403:src/main.c    ****         for( int i = 0; i < numExplosions; i++ )
 1418              		.loc 2 403 18
 1419 07cb C745F800 		movl	$0, -8(%rbp)
 1419      000000
 1420              		.loc 2 403 9
 1421 07d2 E9980000 		jmp	.L82
 1421      00
 1422              	.L84:
 404:src/main.c    ****         {
 405:src/main.c    ****             if( (explosions + i)->canExit > 40 )
 1423              		.loc 2 405 29
 1424 07d7 8B45F8   		movl	-8(%rbp), %eax
 1425 07da 4863D0   		movslq	%eax, %rdx
 1426 07dd 4889D0   		movq	%rdx, %rax
 1427 07e0 4801C0   		addq	%rax, %rax
 1428 07e3 4801D0   		addq	%rdx, %rax
 1429 07e6 48C1E003 		salq	$3, %rax
 1430 07ea 4889C2   		movq	%rax, %rdx
 1431 07ed 488D0500 		leaq	explosions(%rip), %rax
 1431      000000
 1432 07f4 4801D0   		addq	%rdx, %rax
 1433              		.loc 2 405 33
 1434 07f7 0FB600   		movzbl	(%rax), %eax
 1435              		.loc 2 405 15
 1436 07fa 3C28     		cmpb	$40, %al
 1437 07fc 7E6D     		jle	.L83
 406:src/main.c    ****             {
 407:src/main.c    ****                 numExplosions -= 1;
 1438              		.loc 2 407 31
 1439 07fe 8B050000 		movl	numExplosions(%rip), %eax
 1439      0000
 1440 0804 83E801   		subl	$1, %eax
 1441 0807 89050000 		movl	%eax, numExplosions(%rip)
 1441      0000
 408:src/main.c    ****                 *(explosions + i) = explosions[numExplosions];
 1442              		.loc 2 408 47
 1443 080d 8B350000 		movl	numExplosions(%rip), %esi
 1443      0000
 1444              		.loc 2 408 30
 1445 0813 8B45F8   		movl	-8(%rbp), %eax
 1446 0816 4863D0   		movslq	%eax, %rdx
 1447 0819 4889D0   		movq	%rdx, %rax
 1448 081c 4801C0   		addq	%rax, %rax
 1449 081f 4801D0   		addq	%rdx, %rax
 1450 0822 48C1E003 		salq	$3, %rax
 1451 0826 4889C2   		movq	%rax, %rdx
 1452 0829 488D0500 		leaq	explosions(%rip), %rax
 1452      000000
 1453 0830 488D0C02 		leaq	(%rdx,%rax), %rcx
 1454              		.loc 2 408 35
 1455 0834 4863D6   		movslq	%esi, %rdx
 1456 0837 4889D0   		movq	%rdx, %rax
 1457 083a 4801C0   		addq	%rax, %rax
 1458 083d 4801D0   		addq	%rdx, %rax
 1459 0840 48C1E003 		salq	$3, %rax
 1460 0844 4889C7   		movq	%rax, %rdi
 1461 0847 488D3500 		leaq	explosions(%rip), %rsi
 1461      000000
 1462 084e 488B0437 		movq	(%rdi,%rsi), %rax
 1463 0852 488B5437 		movq	8(%rdi,%rsi), %rdx
 1463      08
 1464 0857 488901   		movq	%rax, (%rcx)
 1465 085a 48895108 		movq	%rdx, 8(%rcx)
 1466 085e 488B4437 		movq	16(%rdi,%rsi), %rax
 1466      10
 1467 0863 48894110 		movq	%rax, 16(%rcx)
 409:src/main.c    ****                 i--;
 1468              		.loc 2 409 18
 1469 0867 836DF801 		subl	$1, -8(%rbp)
 1470              	.L83:
 403:src/main.c    ****         {
 1471              		.loc 2 403 45 discriminator 2
 1472 086b 8345F801 		addl	$1, -8(%rbp)
 1473              	.L82:
 403:src/main.c    ****         {
 1474              		.loc 2 403 27 discriminator 1
 1475 086f 8B050000 		movl	numExplosions(%rip), %eax
 1475      0000
 403:src/main.c    ****         {
 1476              		.loc 2 403 9 discriminator 1
 1477 0875 3945F8   		cmpl	%eax, -8(%rbp)
 1478 0878 0F8C59FF 		jl	.L84
 1478      FFFF
 1479              	.LBE16:
 1480              	.LBB17:
 410:src/main.c    ****             }
 411:src/main.c    ****         }
 412:src/main.c    **** 
 413:src/main.c    ****         //Remove pickups
 414:src/main.c    ****         for( int i = 0; i < numPickups; i++ )
 1481              		.loc 2 414 18
 1482 087e C745FC00 		movl	$0, -4(%rbp)
 1482      000000
 1483              		.loc 2 414 9
 1484 0885 EB44     		jmp	.L85
 1485              	.L87:
 415:src/main.c    ****         {
 416:src/main.c    ****             if( (pickups + i)->entity.removed == true )
 1486              		.loc 2 416 26
 1487 0887 8B45FC   		movl	-4(%rbp), %eax
 1488 088a 4898     		cltq
 1489 088c 48C1E005 		salq	$5, %rax
 1490 0890 4889C2   		movq	%rax, %rdx
 1491 0893 488D0500 		leaq	pickups(%rip), %rax
 1491      000000
 1492 089a 4801D0   		addq	%rdx, %rax
 1493              		.loc 2 416 38
 1494 089d 0FB64017 		movzbl	23(%rax), %eax
 1495              		.loc 2 416 15
 1496 08a1 3C01     		cmpb	$1, %al
 1497 08a3 7522     		jne	.L86
 417:src/main.c    ****             {
 418:src/main.c    ****                 removePickup( pickups + i );
 1498              		.loc 2 418 39
 1499 08a5 8B45FC   		movl	-4(%rbp), %eax
 1500 08a8 4898     		cltq
 1501 08aa 48C1E005 		salq	$5, %rax
 1502 08ae 4889C2   		movq	%rax, %rdx
 1503              		.loc 2 418 17
 1504 08b1 488D0500 		leaq	pickups(%rip), %rax
 1504      000000
 1505 08b8 4801D0   		addq	%rdx, %rax
 1506 08bb 4889C7   		movq	%rax, %rdi
 1507 08be E8000000 		call	removePickup
 1507      00
 419:src/main.c    ****                 i--;
 1508              		.loc 2 419 18
 1509 08c3 836DFC01 		subl	$1, -4(%rbp)
 1510              	.L86:
 414:src/main.c    ****         {
 1511              		.loc 2 414 42 discriminator 2
 1512 08c7 8345FC01 		addl	$1, -4(%rbp)
 1513              	.L85:
 414:src/main.c    ****         {
 1514              		.loc 2 414 27 discriminator 1
 1515 08cb 8B050000 		movl	numPickups(%rip), %eax
 1515      0000
 414:src/main.c    ****         {
 1516              		.loc 2 414 9 discriminator 1
 1517 08d1 3945FC   		cmpl	%eax, -4(%rbp)
 1518 08d4 7CB1     		jl	.L87
 1519              	.LBE17:
 420:src/main.c    ****             }
 421:src/main.c    ****         }
 422:src/main.c    **** 
 423:src/main.c    ****         gameClock++;
 1520              		.loc 2 423 18
 1521 08d6 8B050000 		movl	gameClock(%rip), %eax
 1521      0000
 1522 08dc 83C001   		addl	$1, %eax
 1523 08df 89050000 		movl	%eax, gameClock(%rip)
 1523      0000
 424:src/main.c    ****         waitForVblank();
 1524              		.loc 2 424 9
 1525 08e5 E8000000 		call	waitForVblank@PLT
 1525      00
 207:src/main.c    ****         {
 1526              		.loc 2 207 11
 1527 08ea E921F7FF 		jmp	.L88
 1527      FF
 1528              	.L43:
 425:src/main.c    **** 
 426:src/main.c    ****     }
 427:src/main.c    ****     return Start;
 428:src/main.c    **** }
 1529              		.loc 2 428 1
 1530 08ef C9       		leave
 1531              		.cfi_def_cfa 7, 8
 1532 08f0 C3       		ret
 1533              		.cfi_endproc
 1534              	.LFE8:
 1536              		.section	.text.drawEntity,"ax",@progbits
 1537              		.globl	drawEntity
 1539              	drawEntity:
 1540              	.LFB9:
 429:src/main.c    **** 
 430:src/main.c    **** void drawEntity(uEntity entity)
 431:src/main.c    **** {
 1541              		.loc 2 431 1
 1542              		.cfi_startproc
 1543 0000 F30F1EFA 		endbr64
 1544 0004 55       		pushq	%rbp
 1545              		.cfi_def_cfa_offset 16
 1546              		.cfi_offset 6, -16
 1547 0005 4889E5   		movq	%rsp, %rbp
 1548              		.cfi_def_cfa_register 6
 432:src/main.c    ****     drawImage3( entity.x, entity.y, entity.width, entity.height, entity.image );
 1549              		.loc 2 432 72
 1550 0008 488B7D20 		movq	32(%rbp), %rdi
 1551              		.loc 2 432 57
 1552 000c 0FB74518 		movzwl	24(%rbp), %eax
 1553              		.loc 2 432 5
 1554 0010 0FBFC8   		movswl	%ax, %ecx
 1555              		.loc 2 432 43
 1556 0013 0FB74516 		movzwl	22(%rbp), %eax
 1557              		.loc 2 432 5
 1558 0017 0FBFD0   		movswl	%ax, %edx
 1559              		.loc 2 432 33
 1560 001a 0FB74514 		movzwl	20(%rbp), %eax
 1561              		.loc 2 432 5
 1562 001e 0FBFF0   		movswl	%ax, %esi
 1563              		.loc 2 432 23
 1564 0021 0FB74512 		movzwl	18(%rbp), %eax
 1565              		.loc 2 432 5
 1566 0025 98       		cwtl
 1567 0026 4989F8   		movq	%rdi, %r8
 1568 0029 89C7     		movl	%eax, %edi
 1569 002b E8000000 		call	drawImage3@PLT
 1569      00
 433:src/main.c    **** }
 1570              		.loc 2 433 1
 1571 0030 90       		nop
 1572 0031 5D       		popq	%rbp
 1573              		.cfi_def_cfa 7, 8
 1574 0032 C3       		ret
 1575              		.cfi_endproc
 1576              	.LFE9:
 1578              		.section	.text.createShip,"ax",@progbits
 1579              		.globl	createShip
 1581              	createShip:
 1582              	.LFB10:
 434:src/main.c    **** 
 435:src/main.c    **** uShip createShip(int x, int y, int width, int height, const unsigned short *image)
 436:src/main.c    **** {
 1583              		.loc 2 436 1
 1584              		.cfi_startproc
 1585 0000 F30F1EFA 		endbr64
 1586 0004 55       		pushq	%rbp
 1587              		.cfi_def_cfa_offset 16
 1588              		.cfi_offset 6, -16
 1589 0005 4889E5   		movq	%rsp, %rbp
 1590              		.cfi_def_cfa_register 6
 1591 0008 48897DD8 		movq	%rdi, -40(%rbp)
 1592 000c 8975D4   		movl	%esi, -44(%rbp)
 1593 000f 8955D0   		movl	%edx, -48(%rbp)
 1594 0012 894DCC   		movl	%ecx, -52(%rbp)
 1595 0015 448945C8 		movl	%r8d, -56(%rbp)
 1596 0019 4C894DC0 		movq	%r9, -64(%rbp)
 437:src/main.c    ****     uShip ship;
 438:src/main.c    ****     ship.entity.x = x;
 1597              		.loc 2 438 19
 1598 001d 8B45D4   		movl	-44(%rbp), %eax
 1599 0020 668945EA 		movw	%ax, -22(%rbp)
 439:src/main.c    ****     ship.entity.y = y;
 1600              		.loc 2 439 19
 1601 0024 8B45D0   		movl	-48(%rbp), %eax
 1602 0027 668945EC 		movw	%ax, -20(%rbp)
 440:src/main.c    ****     ship.entity.xVel = 0;
 1603              		.loc 2 440 22
 1604 002b 66C745F2 		movw	$0, -14(%rbp)
 1604      0000
 441:src/main.c    ****     ship.entity.yVel = 0;
 1605              		.loc 2 441 22
 1606 0031 66C745F4 		movw	$0, -12(%rbp)
 1606      0000
 442:src/main.c    ****     ship.entity.width = width;
 1607              		.loc 2 442 23
 1608 0037 8B45CC   		movl	-52(%rbp), %eax
 1609 003a 668945EE 		movw	%ax, -18(%rbp)
 443:src/main.c    ****     ship.entity.height = height;
 1610              		.loc 2 443 24
 1611 003e 8B45C8   		movl	-56(%rbp), %eax
 1612 0041 668945F0 		movw	%ax, -16(%rbp)
 444:src/main.c    ****     ship.entity.image = image;
 1613              		.loc 2 444 23
 1614 0045 488B45C0 		movq	-64(%rbp), %rax
 1615 0049 488945F8 		movq	%rax, -8(%rbp)
 445:src/main.c    ****     ship.entity.canExit = true;
 1616              		.loc 2 445 25
 1617 004d C645E801 		movb	$1, -24(%rbp)
 446:src/main.c    ****     ship.entity.isVisible = true;
 1618              		.loc 2 446 27
 1619 0051 C645F601 		movb	$1, -10(%rbp)
 447:src/main.c    ****     ship.entity.removed = false;
 1620              		.loc 2 447 25
 1621 0055 C645F700 		movb	$0, -9(%rbp)
 448:src/main.c    ****     ship.health = 50;
 1622              		.loc 2 448 17
 1623 0059 66C745E0 		movw	$50, -32(%rbp)
 1623      3200
 449:src/main.c    ****     ship.ai = 0;
 1624              		.loc 2 449 13
 1625 005f C645E200 		movb	$0, -30(%rbp)
 450:src/main.c    ****     ship.reload = 0;
 1626              		.loc 2 450 17
 1627 0063 C645E300 		movb	$0, -29(%rbp)
 451:src/main.c    ****     return ship;
 1628              		.loc 2 451 12
 1629 0067 488B4DD8 		movq	-40(%rbp), %rcx
 1630 006b 488B45E0 		movq	-32(%rbp), %rax
 1631 006f 488B55E8 		movq	-24(%rbp), %rdx
 1632 0073 488901   		movq	%rax, (%rcx)
 1633 0076 48895108 		movq	%rdx, 8(%rcx)
 1634 007a 488B45F0 		movq	-16(%rbp), %rax
 1635 007e 488B55F8 		movq	-8(%rbp), %rdx
 1636 0082 48894110 		movq	%rax, 16(%rcx)
 1637 0086 48895118 		movq	%rdx, 24(%rcx)
 452:src/main.c    **** }
 1638              		.loc 2 452 1
 1639 008a 488B45D8 		movq	-40(%rbp), %rax
 1640 008e 5D       		popq	%rbp
 1641              		.cfi_def_cfa 7, 8
 1642 008f C3       		ret
 1643              		.cfi_endproc
 1644              	.LFE10:
 1646              		.section	.text.createEnemyShip,"ax",@progbits
 1647              		.globl	createEnemyShip
 1649              	createEnemyShip:
 1650              	.LFB11:
 453:src/main.c    **** 
 454:src/main.c    **** uShip* createEnemyShip(int x, int y, int width, int height, const unsigned short *image)
 455:src/main.c    **** {
 1651              		.loc 2 455 1
 1652              		.cfi_startproc
 1653 0000 F30F1EFA 		endbr64
 1654 0004 55       		pushq	%rbp
 1655              		.cfi_def_cfa_offset 16
 1656              		.cfi_offset 6, -16
 1657 0005 4889E5   		movq	%rsp, %rbp
 1658              		.cfi_def_cfa_register 6
 1659 0008 4883EC50 		subq	$80, %rsp
 1660 000c 897DCC   		movl	%edi, -52(%rbp)
 1661 000f 8975C8   		movl	%esi, -56(%rbp)
 1662 0012 8955C4   		movl	%edx, -60(%rbp)
 1663 0015 894DC0   		movl	%ecx, -64(%rbp)
 1664 0018 4C8945B8 		movq	%r8, -72(%rbp)
 1665              		.loc 2 455 1
 1666 001c 64488B04 		movq	%fs:40, %rax
 1666      25280000 
 1666      00
 1667 0025 488945F8 		movq	%rax, -8(%rbp)
 1668 0029 31C0     		xorl	%eax, %eax
 456:src/main.c    ****     uShip ship = createShip( x, y, width, height, image );
 1669              		.loc 2 456 18
 1670 002b 488D45D0 		leaq	-48(%rbp), %rax
 1671 002f 4C8B45B8 		movq	-72(%rbp), %r8
 1672 0033 8B7DC0   		movl	-64(%rbp), %edi
 1673 0036 8B4DC4   		movl	-60(%rbp), %ecx
 1674 0039 8B55C8   		movl	-56(%rbp), %edx
 1675 003c 8B75CC   		movl	-52(%rbp), %esi
 1676 003f 4D89C1   		movq	%r8, %r9
 1677 0042 4189F8   		movl	%edi, %r8d
 1678 0045 4889C7   		movq	%rax, %rdi
 1679 0048 E8000000 		call	createShip
 1679      00
 457:src/main.c    ****     enemies[numEnemies] = ship;
 1680              		.loc 2 457 12
 1681 004d 8B050000 		movl	numEnemies(%rip), %eax
 1681      0000
 1682              		.loc 2 457 25
 1683 0053 4898     		cltq
 1684 0055 48C1E005 		salq	$5, %rax
 1685 0059 4889C6   		movq	%rax, %rsi
 1686 005c 488D0D00 		leaq	enemies(%rip), %rcx
 1686      000000
 1687 0063 488B45D0 		movq	-48(%rbp), %rax
 1688 0067 488B55D8 		movq	-40(%rbp), %rdx
 1689 006b 4889040E 		movq	%rax, (%rsi,%rcx)
 1690 006f 4889540E 		movq	%rdx, 8(%rsi,%rcx)
 1690      08
 1691 0074 488B45E0 		movq	-32(%rbp), %rax
 1692 0078 488B55E8 		movq	-24(%rbp), %rdx
 1693 007c 4889440E 		movq	%rax, 16(%rsi,%rcx)
 1693      10
 1694 0081 4889540E 		movq	%rdx, 24(%rsi,%rcx)
 1694      18
 458:src/main.c    ****     if( numEnemies < 20 )
 1695              		.loc 2 458 20
 1696 0086 8B050000 		movl	numEnemies(%rip), %eax
 1696      0000
 1697              		.loc 2 458 7
 1698 008c 83F813   		cmpl	$19, %eax
 1699 008f 7F64     		jg	.L93
 459:src/main.c    ****     {
 460:src/main.c    ****         enemies[numEnemies] = ship;
 1700              		.loc 2 460 16
 1701 0091 8B050000 		movl	numEnemies(%rip), %eax
 1701      0000
 1702              		.loc 2 460 29
 1703 0097 4898     		cltq
 1704 0099 48C1E005 		salq	$5, %rax
 1705 009d 4889C6   		movq	%rax, %rsi
 1706 00a0 488D0D00 		leaq	enemies(%rip), %rcx
 1706      000000
 1707 00a7 488B45D0 		movq	-48(%rbp), %rax
 1708 00ab 488B55D8 		movq	-40(%rbp), %rdx
 1709 00af 4889040E 		movq	%rax, (%rsi,%rcx)
 1710 00b3 4889540E 		movq	%rdx, 8(%rsi,%rcx)
 1710      08
 1711 00b8 488B45E0 		movq	-32(%rbp), %rax
 1712 00bc 488B55E8 		movq	-24(%rbp), %rdx
 1713 00c0 4889440E 		movq	%rax, 16(%rsi,%rcx)
 1713      10
 1714 00c5 4889540E 		movq	%rdx, 24(%rsi,%rcx)
 1714      18
 461:src/main.c    ****         numEnemies += 1;
 1715              		.loc 2 461 20
 1716 00ca 8B050000 		movl	numEnemies(%rip), %eax
 1716      0000
 1717 00d0 83C001   		addl	$1, %eax
 1718 00d3 89050000 		movl	%eax, numEnemies(%rip)
 1718      0000
 462:src/main.c    ****         return (enemies + numEnemies - 1);
 1719              		.loc 2 462 25
 1720 00d9 8B050000 		movl	numEnemies(%rip), %eax
 1720      0000
 1721 00df 4898     		cltq
 1722 00e1 48C1E005 		salq	$5, %rax
 1723              		.loc 2 462 38
 1724 00e5 488D50E0 		leaq	-32(%rax), %rdx
 1725 00e9 488D0500 		leaq	enemies(%rip), %rax
 1725      000000
 1726 00f0 4801D0   		addq	%rdx, %rax
 1727 00f3 EB07     		jmp	.L95
 1728              	.L93:
 463:src/main.c    ****     }
 464:src/main.c    ****     return enemies;
 1729              		.loc 2 464 12
 1730 00f5 488D0500 		leaq	enemies(%rip), %rax
 1730      000000
 1731              	.L95:
 465:src/main.c    **** }
 1732              		.loc 2 465 1 discriminator 1
 1733 00fc 488B7DF8 		movq	-8(%rbp), %rdi
 1734 0100 6448333C 		xorq	%fs:40, %rdi
 1734      25280000 
 1734      00
 1735 0109 7405     		je	.L96
 1736              		.loc 2 465 1 is_stmt 0
 1737 010b E8000000 		call	__stack_chk_fail@PLT
 1737      00
 1738              	.L96:
 1739 0110 C9       		leave
 1740              		.cfi_def_cfa 7, 8
 1741 0111 C3       		ret
 1742              		.cfi_endproc
 1743              	.LFE11:
 1745              		.section	.text.createProjectile,"ax",@progbits
 1746              		.globl	createProjectile
 1748              	createProjectile:
 1749              	.LFB12:
 466:src/main.c    **** 
 467:src/main.c    **** uProjectile* createProjectile(int x, int y, int width, int height, const unsigned short *image)
 468:src/main.c    **** {
 1750              		.loc 2 468 1 is_stmt 1
 1751              		.cfi_startproc
 1752 0000 F30F1EFA 		endbr64
 1753 0004 55       		pushq	%rbp
 1754              		.cfi_def_cfa_offset 16
 1755              		.cfi_offset 6, -16
 1756 0005 4889E5   		movq	%rsp, %rbp
 1757              		.cfi_def_cfa_register 6
 1758 0008 897DDC   		movl	%edi, -36(%rbp)
 1759 000b 8975D8   		movl	%esi, -40(%rbp)
 1760 000e 8955D4   		movl	%edx, -44(%rbp)
 1761 0011 894DD0   		movl	%ecx, -48(%rbp)
 1762 0014 4C8945C8 		movq	%r8, -56(%rbp)
 469:src/main.c    **** 
 470:src/main.c    ****     uProjectile projectile;
 471:src/main.c    ****     projectile.entity.x = x;
 1763              		.loc 2 471 25
 1764 0018 8B45DC   		movl	-36(%rbp), %eax
 1765 001b 668945EA 		movw	%ax, -22(%rbp)
 472:src/main.c    ****     projectile.entity.y = y;
 1766              		.loc 2 472 25
 1767 001f 8B45D8   		movl	-40(%rbp), %eax
 1768 0022 668945EC 		movw	%ax, -20(%rbp)
 473:src/main.c    ****     projectile.entity.xVel = 4;
 1769              		.loc 2 473 28
 1770 0026 66C745F2 		movw	$4, -14(%rbp)
 1770      0400
 474:src/main.c    ****     projectile.entity.yVel = 0;
 1771              		.loc 2 474 28
 1772 002c 66C745F4 		movw	$0, -12(%rbp)
 1772      0000
 475:src/main.c    ****     projectile.entity.width = width;
 1773              		.loc 2 475 29
 1774 0032 8B45D4   		movl	-44(%rbp), %eax
 1775 0035 668945EE 		movw	%ax, -18(%rbp)
 476:src/main.c    ****     projectile.entity.height = height;
 1776              		.loc 2 476 30
 1777 0039 8B45D0   		movl	-48(%rbp), %eax
 1778 003c 668945F0 		movw	%ax, -16(%rbp)
 477:src/main.c    ****     projectile.entity.image = image;
 1779              		.loc 2 477 29
 1780 0040 488B45C8 		movq	-56(%rbp), %rax
 1781 0044 488945F8 		movq	%rax, -8(%rbp)
 478:src/main.c    ****     projectile.entity.canExit = true;
 1782              		.loc 2 478 31
 1783 0048 C645E801 		movb	$1, -24(%rbp)
 479:src/main.c    ****     projectile.entity.isVisible = true;
 1784              		.loc 2 479 33
 1785 004c C645F601 		movb	$1, -10(%rbp)
 480:src/main.c    ****     projectile.entity.removed = false;
 1786              		.loc 2 480 31
 1787 0050 C645F700 		movb	$0, -9(%rbp)
 481:src/main.c    ****     projectile.damage = 20;
 1788              		.loc 2 481 23
 1789 0054 C745E014 		movl	$20, -32(%rbp)
 1789      000000
 482:src/main.c    ****     projectile.team = 0;
 1790              		.loc 2 482 21
 1791 005b C645E400 		movb	$0, -28(%rbp)
 483:src/main.c    ****     if( numProjectiles < 40 )
 1792              		.loc 2 483 24
 1793 005f 8B050000 		movl	numProjectiles(%rip), %eax
 1793      0000
 1794              		.loc 2 483 7
 1795 0065 83F827   		cmpl	$39, %eax
 1796 0068 7F64     		jg	.L98
 484:src/main.c    ****     {
 485:src/main.c    ****         projectiles[numProjectiles] = projectile;
 1797              		.loc 2 485 20
 1798 006a 8B050000 		movl	numProjectiles(%rip), %eax
 1798      0000
 1799              		.loc 2 485 37
 1800 0070 4898     		cltq
 1801 0072 48C1E005 		salq	$5, %rax
 1802 0076 4889C6   		movq	%rax, %rsi
 1803 0079 488D0D00 		leaq	projectiles(%rip), %rcx
 1803      000000
 1804 0080 488B45E0 		movq	-32(%rbp), %rax
 1805 0084 488B55E8 		movq	-24(%rbp), %rdx
 1806 0088 4889040E 		movq	%rax, (%rsi,%rcx)
 1807 008c 4889540E 		movq	%rdx, 8(%rsi,%rcx)
 1807      08
 1808 0091 488B45F0 		movq	-16(%rbp), %rax
 1809 0095 488B55F8 		movq	-8(%rbp), %rdx
 1810 0099 4889440E 		movq	%rax, 16(%rsi,%rcx)
 1810      10
 1811 009e 4889540E 		movq	%rdx, 24(%rsi,%rcx)
 1811      18
 486:src/main.c    ****         numProjectiles += 1;
 1812              		.loc 2 486 24
 1813 00a3 8B050000 		movl	numProjectiles(%rip), %eax
 1813      0000
 1814 00a9 83C001   		addl	$1, %eax
 1815 00ac 89050000 		movl	%eax, numProjectiles(%rip)
 1815      0000
 487:src/main.c    ****         return (projectiles + numProjectiles - 1);
 1816              		.loc 2 487 29
 1817 00b2 8B050000 		movl	numProjectiles(%rip), %eax
 1817      0000
 1818 00b8 4898     		cltq
 1819 00ba 48C1E005 		salq	$5, %rax
 1820              		.loc 2 487 46
 1821 00be 488D50E0 		leaq	-32(%rax), %rdx
 1822 00c2 488D0500 		leaq	projectiles(%rip), %rax
 1822      000000
 1823 00c9 4801D0   		addq	%rdx, %rax
 1824 00cc EB07     		jmp	.L100
 1825              	.L98:
 488:src/main.c    ****     }
 489:src/main.c    ****     return projectiles;
 1826              		.loc 2 489 12
 1827 00ce 488D0500 		leaq	projectiles(%rip), %rax
 1827      000000
 1828              	.L100:
 490:src/main.c    **** }
 1829              		.loc 2 490 1 discriminator 1
 1830 00d5 5D       		popq	%rbp
 1831              		.cfi_def_cfa 7, 8
 1832 00d6 C3       		ret
 1833              		.cfi_endproc
 1834              	.LFE12:
 1836              		.section	.text.createExplosion,"ax",@progbits
 1837              		.globl	createExplosion
 1839              	createExplosion:
 1840              	.LFB13:
 491:src/main.c    **** 
 492:src/main.c    **** void createExplosion(int x, int y)
 493:src/main.c    **** {
 1841              		.loc 2 493 1
 1842              		.cfi_startproc
 1843 0000 F30F1EFA 		endbr64
 1844 0004 55       		pushq	%rbp
 1845              		.cfi_def_cfa_offset 16
 1846              		.cfi_offset 6, -16
 1847 0005 4889E5   		movq	%rsp, %rbp
 1848              		.cfi_def_cfa_register 6
 1849 0008 4883EC30 		subq	$48, %rsp
 1850 000c 897DDC   		movl	%edi, -36(%rbp)
 1851 000f 8975D8   		movl	%esi, -40(%rbp)
 494:src/main.c    ****     if( numExplosions < 20 )
 1852              		.loc 2 494 23
 1853 0012 8B050000 		movl	numExplosions(%rip), %eax
 1853      0000
 1854              		.loc 2 494 7
 1855 0018 83F813   		cmpl	$19, %eax
 1856 001b 0F8F8800 		jg	.L103
 1856      0000
 1857              	.LBB18:
 495:src/main.c    ****     {
 496:src/main.c    ****         uEntity explosion;
 497:src/main.c    ****         explosion.x = x;
 1858              		.loc 2 497 21
 1859 0021 8B45DC   		movl	-36(%rbp), %eax
 1860 0024 668945E2 		movw	%ax, -30(%rbp)
 498:src/main.c    ****         explosion.y = y;
 1861              		.loc 2 498 21
 1862 0028 8B45D8   		movl	-40(%rbp), %eax
 1863 002b 668945E4 		movw	%ax, -28(%rbp)
 499:src/main.c    ****         explosion.width = EXPLOSION1_WIDTH;
 1864              		.loc 2 499 25
 1865 002f 66C745E6 		movw	$16, -26(%rbp)
 1865      1000
 500:src/main.c    ****         explosion.height = EXPLOSION1_HEIGHT;
 1866              		.loc 2 500 26
 1867 0035 66C745E8 		movw	$16, -24(%rbp)
 1867      1000
 501:src/main.c    ****         explosion.image = explosion1;
 1868              		.loc 2 501 25
 1869 003b 488D0500 		leaq	explosion1(%rip), %rax
 1869      000000
 1870 0042 488945F0 		movq	%rax, -16(%rbp)
 502:src/main.c    ****         explosion.canExit = 0;
 1871              		.loc 2 502 27
 1872 0046 C645E000 		movb	$0, -32(%rbp)
 503:src/main.c    ****         explosions[numExplosions] = explosion;
 1873              		.loc 2 503 19
 1874 004a 8B050000 		movl	numExplosions(%rip), %eax
 1874      0000
 1875              		.loc 2 503 35
 1876 0050 4863D0   		movslq	%eax, %rdx
 1877 0053 4889D0   		movq	%rdx, %rax
 1878 0056 4801C0   		addq	%rax, %rax
 1879 0059 4801D0   		addq	%rdx, %rax
 1880 005c 48C1E003 		salq	$3, %rax
 1881 0060 4889C6   		movq	%rax, %rsi
 1882 0063 488D0D00 		leaq	explosions(%rip), %rcx
 1882      000000
 1883 006a 488B45E0 		movq	-32(%rbp), %rax
 1884 006e 488B55E8 		movq	-24(%rbp), %rdx
 1885 0072 4889040E 		movq	%rax, (%rsi,%rcx)
 1886 0076 4889540E 		movq	%rdx, 8(%rsi,%rcx)
 1886      08
 1887 007b 488B45F0 		movq	-16(%rbp), %rax
 1888 007f 4889440E 		movq	%rax, 16(%rsi,%rcx)
 1888      10
 504:src/main.c    ****         drawEntity( explosion );
 1889              		.loc 2 504 9
 1890 0084 4883EC08 		subq	$8, %rsp
 1891 0088 FF75F0   		pushq	-16(%rbp)
 1892 008b FF75E8   		pushq	-24(%rbp)
 1893 008e FF75E0   		pushq	-32(%rbp)
 1894 0091 E8000000 		call	drawEntity
 1894      00
 1895 0096 4883C420 		addq	$32, %rsp
 505:src/main.c    ****         numExplosions += 1;
 1896              		.loc 2 505 23
 1897 009a 8B050000 		movl	numExplosions(%rip), %eax
 1897      0000
 1898 00a0 83C001   		addl	$1, %eax
 1899 00a3 89050000 		movl	%eax, numExplosions(%rip)
 1899      0000
 1900              	.L103:
 1901              	.LBE18:
 506:src/main.c    ****     }
 507:src/main.c    **** }
 1902              		.loc 2 507 1
 1903 00a9 90       		nop
 1904 00aa C9       		leave
 1905              		.cfi_def_cfa 7, 8
 1906 00ab C3       		ret
 1907              		.cfi_endproc
 1908              	.LFE13:
 1910              		.section	.text.createPickup,"ax",@progbits
 1911              		.globl	createPickup
 1913              	createPickup:
 1914              	.LFB14:
 508:src/main.c    **** 
 509:src/main.c    **** uPickup* createPickup(int x, int y, int width, int height, const unsigned short *image)
 510:src/main.c    **** {
 1915              		.loc 2 510 1
 1916              		.cfi_startproc
 1917 0000 F30F1EFA 		endbr64
 1918 0004 55       		pushq	%rbp
 1919              		.cfi_def_cfa_offset 16
 1920              		.cfi_offset 6, -16
 1921 0005 4889E5   		movq	%rsp, %rbp
 1922              		.cfi_def_cfa_register 6
 1923 0008 897DDC   		movl	%edi, -36(%rbp)
 1924 000b 8975D8   		movl	%esi, -40(%rbp)
 1925 000e 8955D4   		movl	%edx, -44(%rbp)
 1926 0011 894DD0   		movl	%ecx, -48(%rbp)
 1927 0014 4C8945C8 		movq	%r8, -56(%rbp)
 511:src/main.c    **** 
 512:src/main.c    ****     uPickup Pickup;
 513:src/main.c    ****     Pickup.entity.x = x;
 1928              		.loc 2 513 21
 1929 0018 8B45DC   		movl	-36(%rbp), %eax
 1930 001b 668945EA 		movw	%ax, -22(%rbp)
 514:src/main.c    ****     Pickup.entity.y = y;
 1931              		.loc 2 514 21
 1932 001f 8B45D8   		movl	-40(%rbp), %eax
 1933 0022 668945EC 		movw	%ax, -20(%rbp)
 515:src/main.c    ****     Pickup.entity.xVel = 0;
 1934              		.loc 2 515 24
 1935 0026 66C745F2 		movw	$0, -14(%rbp)
 1935      0000
 516:src/main.c    ****     Pickup.entity.yVel = 0;
 1936              		.loc 2 516 24
 1937 002c 66C745F4 		movw	$0, -12(%rbp)
 1937      0000
 517:src/main.c    ****     Pickup.entity.width = width;
 1938              		.loc 2 517 25
 1939 0032 8B45D4   		movl	-44(%rbp), %eax
 1940 0035 668945EE 		movw	%ax, -18(%rbp)
 518:src/main.c    ****     Pickup.entity.height = height;
 1941              		.loc 2 518 26
 1942 0039 8B45D0   		movl	-48(%rbp), %eax
 1943 003c 668945F0 		movw	%ax, -16(%rbp)
 519:src/main.c    ****     Pickup.entity.image = image;
 1944              		.loc 2 519 25
 1945 0040 488B45C8 		movq	-56(%rbp), %rax
 1946 0044 488945F8 		movq	%rax, -8(%rbp)
 520:src/main.c    ****     Pickup.entity.canExit = true;
 1947              		.loc 2 520 27
 1948 0048 C645E801 		movb	$1, -24(%rbp)
 521:src/main.c    ****     Pickup.entity.isVisible = true;
 1949              		.loc 2 521 29
 1950 004c C645F601 		movb	$1, -10(%rbp)
 522:src/main.c    ****     Pickup.entity.removed = false;
 1951              		.loc 2 522 27
 1952 0050 C645F700 		movb	$0, -9(%rbp)
 523:src/main.c    ****     Pickup.type = Health;
 1953              		.loc 2 523 17
 1954 0054 C745E000 		movl	$0, -32(%rbp)
 1954      000000
 524:src/main.c    ****     if( numPickups < 5 )
 1955              		.loc 2 524 20
 1956 005b 8B050000 		movl	numPickups(%rip), %eax
 1956      0000
 1957              		.loc 2 524 7
 1958 0061 83F804   		cmpl	$4, %eax
 1959 0064 7F64     		jg	.L105
 525:src/main.c    ****     {
 526:src/main.c    ****         pickups[numPickups] = Pickup;
 1960              		.loc 2 526 16
 1961 0066 8B050000 		movl	numPickups(%rip), %eax
 1961      0000
 1962              		.loc 2 526 29
 1963 006c 4898     		cltq
 1964 006e 48C1E005 		salq	$5, %rax
 1965 0072 4889C6   		movq	%rax, %rsi
 1966 0075 488D0D00 		leaq	pickups(%rip), %rcx
 1966      000000
 1967 007c 488B45E0 		movq	-32(%rbp), %rax
 1968 0080 488B55E8 		movq	-24(%rbp), %rdx
 1969 0084 4889040E 		movq	%rax, (%rsi,%rcx)
 1970 0088 4889540E 		movq	%rdx, 8(%rsi,%rcx)
 1970      08
 1971 008d 488B45F0 		movq	-16(%rbp), %rax
 1972 0091 488B55F8 		movq	-8(%rbp), %rdx
 1973 0095 4889440E 		movq	%rax, 16(%rsi,%rcx)
 1973      10
 1974 009a 4889540E 		movq	%rdx, 24(%rsi,%rcx)
 1974      18
 527:src/main.c    ****         numPickups += 1;
 1975              		.loc 2 527 20
 1976 009f 8B050000 		movl	numPickups(%rip), %eax
 1976      0000
 1977 00a5 83C001   		addl	$1, %eax
 1978 00a8 89050000 		movl	%eax, numPickups(%rip)
 1978      0000
 528:src/main.c    ****         return (pickups + numPickups - 1);
 1979              		.loc 2 528 25
 1980 00ae 8B050000 		movl	numPickups(%rip), %eax
 1980      0000
 1981 00b4 4898     		cltq
 1982 00b6 48C1E005 		salq	$5, %rax
 1983              		.loc 2 528 38
 1984 00ba 488D50E0 		leaq	-32(%rax), %rdx
 1985 00be 488D0500 		leaq	pickups(%rip), %rax
 1985      000000
 1986 00c5 4801D0   		addq	%rdx, %rax
 1987 00c8 EB07     		jmp	.L107
 1988              	.L105:
 529:src/main.c    ****     }
 530:src/main.c    ****     return pickups;
 1989              		.loc 2 530 12
 1990 00ca 488D0500 		leaq	pickups(%rip), %rax
 1990      000000
 1991              	.L107:
 531:src/main.c    **** }
 1992              		.loc 2 531 1 discriminator 1
 1993 00d1 5D       		popq	%rbp
 1994              		.cfi_def_cfa 7, 8
 1995 00d2 C3       		ret
 1996              		.cfi_endproc
 1997              	.LFE14:
 1999              		.section	.text.destroyEnemy,"ax",@progbits
 2000              		.globl	destroyEnemy
 2002              	destroyEnemy:
 2003              	.LFB15:
 532:src/main.c    **** 
 533:src/main.c    **** void destroyEnemy(uShip *ship)
 534:src/main.c    **** {
 2004              		.loc 2 534 1
 2005              		.cfi_startproc
 2006 0000 F30F1EFA 		endbr64
 2007 0004 55       		pushq	%rbp
 2008              		.cfi_def_cfa_offset 16
 2009              		.cfi_offset 6, -16
 2010 0005 4889E5   		movq	%rsp, %rbp
 2011              		.cfi_def_cfa_register 6
 2012 0008 4883EC10 		subq	$16, %rsp
 2013 000c 48897DF8 		movq	%rdi, -8(%rbp)
 535:src/main.c    ****     drawRectangle( ship->entity.x, ship->entity.y, ship->entity.width, ship->entity.height, bgColor
 2014              		.loc 2 535 5
 2015 0010 0FB70500 		movzwl	bgColor(%rip), %eax
 2015      000000
 2016 0017 0FB7F8   		movzwl	%ax, %edi
 2017              		.loc 2 535 84
 2018 001a 488B45F8 		movq	-8(%rbp), %rax
 2019 001e 0FB74010 		movzwl	16(%rax), %eax
 2020              		.loc 2 535 5
 2021 0022 0FBFC8   		movswl	%ax, %ecx
 2022              		.loc 2 535 64
 2023 0025 488B45F8 		movq	-8(%rbp), %rax
 2024 0029 0FB7400E 		movzwl	14(%rax), %eax
 2025              		.loc 2 535 5
 2026 002d 0FBFD0   		movswl	%ax, %edx
 2027              		.loc 2 535 48
 2028 0030 488B45F8 		movq	-8(%rbp), %rax
 2029 0034 0FB7400C 		movzwl	12(%rax), %eax
 2030              		.loc 2 535 5
 2031 0038 0FBFF0   		movswl	%ax, %esi
 2032              		.loc 2 535 32
 2033 003b 488B45F8 		movq	-8(%rbp), %rax
 2034 003f 0FB7400A 		movzwl	10(%rax), %eax
 2035              		.loc 2 535 5
 2036 0043 98       		cwtl
 2037 0044 4189F8   		movl	%edi, %r8d
 2038 0047 89C7     		movl	%eax, %edi
 2039 0049 E8000000 		call	drawRectangle@PLT
 2039      00
 536:src/main.c    ****     if( ship->entity.isVisible && ship->entity.x >= 0 )
 2040              		.loc 2 536 21
 2041 004e 488B45F8 		movq	-8(%rbp), %rax
 2042 0052 0FB64016 		movzbl	22(%rax), %eax
 2043              		.loc 2 536 7
 2044 0056 84C0     		testb	%al, %al
 2045 0058 742A     		je	.L109
 2046              		.loc 2 536 47 discriminator 1
 2047 005a 488B45F8 		movq	-8(%rbp), %rax
 2048 005e 0FB7400A 		movzwl	10(%rax), %eax
 2049              		.loc 2 536 32 discriminator 1
 2050 0062 6685C0   		testw	%ax, %ax
 2051 0065 781D     		js	.L109
 537:src/main.c    ****     {
 538:src/main.c    ****         createExplosion( ship->entity.x, ship->entity.y );
 2052              		.loc 2 538 54
 2053 0067 488B45F8 		movq	-8(%rbp), %rax
 2054 006b 0FB7400C 		movzwl	12(%rax), %eax
 2055              		.loc 2 538 9
 2056 006f 0FBFD0   		movswl	%ax, %edx
 2057              		.loc 2 538 38
 2058 0072 488B45F8 		movq	-8(%rbp), %rax
 2059 0076 0FB7400A 		movzwl	10(%rax), %eax
 2060              		.loc 2 538 9
 2061 007a 98       		cwtl
 2062 007b 89D6     		movl	%edx, %esi
 2063 007d 89C7     		movl	%eax, %edi
 2064 007f E8000000 		call	createExplosion
 2064      00
 2065              	.L109:
 539:src/main.c    ****     }
 540:src/main.c    ****     numEnemies--;
 2066              		.loc 2 540 15
 2067 0084 8B050000 		movl	numEnemies(%rip), %eax
 2067      0000
 2068 008a 83E801   		subl	$1, %eax
 2069 008d 89050000 		movl	%eax, numEnemies(%rip)
 2069      0000
 541:src/main.c    ****     *ship = enemies[numEnemies];
 2070              		.loc 2 541 20
 2071 0093 8B050000 		movl	numEnemies(%rip), %eax
 2071      0000
 2072              		.loc 2 541 11
 2073 0099 488B4DF8 		movq	-8(%rbp), %rcx
 2074 009d 4898     		cltq
 2075 009f 48C1E005 		salq	$5, %rax
 2076 00a3 4889C7   		movq	%rax, %rdi
 2077 00a6 488D3500 		leaq	enemies(%rip), %rsi
 2077      000000
 2078 00ad 488B0437 		movq	(%rdi,%rsi), %rax
 2079 00b1 488B5437 		movq	8(%rdi,%rsi), %rdx
 2079      08
 2080 00b6 488901   		movq	%rax, (%rcx)
 2081 00b9 48895108 		movq	%rdx, 8(%rcx)
 2082 00bd 488B4437 		movq	16(%rdi,%rsi), %rax
 2082      10
 2083 00c2 488B5437 		movq	24(%rdi,%rsi), %rdx
 2083      18
 2084 00c7 48894110 		movq	%rax, 16(%rcx)
 2085 00cb 48895118 		movq	%rdx, 24(%rcx)
 542:src/main.c    **** }
 2086              		.loc 2 542 1
 2087 00cf 90       		nop
 2088 00d0 C9       		leave
 2089              		.cfi_def_cfa 7, 8
 2090 00d1 C3       		ret
 2091              		.cfi_endproc
 2092              	.LFE15:
 2094              		.section	.text.removeProjectile,"ax",@progbits
 2095              		.globl	removeProjectile
 2097              	removeProjectile:
 2098              	.LFB16:
 543:src/main.c    **** 
 544:src/main.c    **** void removeProjectile(uProjectile *projectile)
 545:src/main.c    **** {
 2099              		.loc 2 545 1
 2100              		.cfi_startproc
 2101 0000 F30F1EFA 		endbr64
 2102 0004 55       		pushq	%rbp
 2103              		.cfi_def_cfa_offset 16
 2104              		.cfi_offset 6, -16
 2105 0005 4889E5   		movq	%rsp, %rbp
 2106              		.cfi_def_cfa_register 6
 2107 0008 4883EC10 		subq	$16, %rsp
 2108 000c 48897DF8 		movq	%rdi, -8(%rbp)
 546:src/main.c    ****     drawRectangle( projectile->entity.x, projectile->entity.y, projectile->entity.width,
 2109              		.loc 2 546 5
 2110 0010 0FB70500 		movzwl	bgColor(%rip), %eax
 2110      000000
 2111 0017 0FB7F8   		movzwl	%ax, %edi
 547:src/main.c    ****             projectile->entity.height, bgColor );
 2112              		.loc 2 547 31
 2113 001a 488B45F8 		movq	-8(%rbp), %rax
 2114 001e 0FB74010 		movzwl	16(%rax), %eax
 546:src/main.c    ****     drawRectangle( projectile->entity.x, projectile->entity.y, projectile->entity.width,
 2115              		.loc 2 546 5
 2116 0022 0FBFC8   		movswl	%ax, %ecx
 546:src/main.c    ****     drawRectangle( projectile->entity.x, projectile->entity.y, projectile->entity.width,
 2117              		.loc 2 546 82
 2118 0025 488B45F8 		movq	-8(%rbp), %rax
 2119 0029 0FB7400E 		movzwl	14(%rax), %eax
 546:src/main.c    ****     drawRectangle( projectile->entity.x, projectile->entity.y, projectile->entity.width,
 2120              		.loc 2 546 5
 2121 002d 0FBFD0   		movswl	%ax, %edx
 546:src/main.c    ****     drawRectangle( projectile->entity.x, projectile->entity.y, projectile->entity.width,
 2122              		.loc 2 546 60
 2123 0030 488B45F8 		movq	-8(%rbp), %rax
 2124 0034 0FB7400C 		movzwl	12(%rax), %eax
 546:src/main.c    ****     drawRectangle( projectile->entity.x, projectile->entity.y, projectile->entity.width,
 2125              		.loc 2 546 5
 2126 0038 0FBFF0   		movswl	%ax, %esi
 546:src/main.c    ****     drawRectangle( projectile->entity.x, projectile->entity.y, projectile->entity.width,
 2127              		.loc 2 546 38
 2128 003b 488B45F8 		movq	-8(%rbp), %rax
 2129 003f 0FB7400A 		movzwl	10(%rax), %eax
 546:src/main.c    ****     drawRectangle( projectile->entity.x, projectile->entity.y, projectile->entity.width,
 2130              		.loc 2 546 5
 2131 0043 98       		cwtl
 2132 0044 4189F8   		movl	%edi, %r8d
 2133 0047 89C7     		movl	%eax, %edi
 2134 0049 E8000000 		call	drawRectangle@PLT
 2134      00
 548:src/main.c    ****     numProjectiles -= 1;
 2135              		.loc 2 548 20
 2136 004e 8B050000 		movl	numProjectiles(%rip), %eax
 2136      0000
 2137 0054 83E801   		subl	$1, %eax
 2138 0057 89050000 		movl	%eax, numProjectiles(%rip)
 2138      0000
 549:src/main.c    ****     *projectile = projectiles[numProjectiles];
 2139              		.loc 2 549 30
 2140 005d 8B050000 		movl	numProjectiles(%rip), %eax
 2140      0000
 2141              		.loc 2 549 17
 2142 0063 488B4DF8 		movq	-8(%rbp), %rcx
 2143 0067 4898     		cltq
 2144 0069 48C1E005 		salq	$5, %rax
 2145 006d 4889C7   		movq	%rax, %rdi
 2146 0070 488D3500 		leaq	projectiles(%rip), %rsi
 2146      000000
 2147 0077 488B0437 		movq	(%rdi,%rsi), %rax
 2148 007b 488B5437 		movq	8(%rdi,%rsi), %rdx
 2148      08
 2149 0080 488901   		movq	%rax, (%rcx)
 2150 0083 48895108 		movq	%rdx, 8(%rcx)
 2151 0087 488B4437 		movq	16(%rdi,%rsi), %rax
 2151      10
 2152 008c 488B5437 		movq	24(%rdi,%rsi), %rdx
 2152      18
 2153 0091 48894110 		movq	%rax, 16(%rcx)
 2154 0095 48895118 		movq	%rdx, 24(%rcx)
 550:src/main.c    **** }
 2155              		.loc 2 550 1
 2156 0099 90       		nop
 2157 009a C9       		leave
 2158              		.cfi_def_cfa 7, 8
 2159 009b C3       		ret
 2160              		.cfi_endproc
 2161              	.LFE16:
 2163              		.section	.text.removePickup,"ax",@progbits
 2164              		.globl	removePickup
 2166              	removePickup:
 2167              	.LFB17:
 551:src/main.c    **** 
 552:src/main.c    **** void removePickup(uPickup *pickup)
 553:src/main.c    **** {
 2168              		.loc 2 553 1
 2169              		.cfi_startproc
 2170 0000 F30F1EFA 		endbr64
 2171 0004 55       		pushq	%rbp
 2172              		.cfi_def_cfa_offset 16
 2173              		.cfi_offset 6, -16
 2174 0005 4889E5   		movq	%rsp, %rbp
 2175              		.cfi_def_cfa_register 6
 2176 0008 4883EC10 		subq	$16, %rsp
 2177 000c 48897DF8 		movq	%rdi, -8(%rbp)
 554:src/main.c    ****     drawRectangle( pickup->entity.x, pickup->entity.y, pickup->entity.width, pickup->entity.height,
 2178              		.loc 2 554 5
 2179 0010 0FB70500 		movzwl	bgColor(%rip), %eax
 2179      000000
 2180 0017 0FB7F8   		movzwl	%ax, %edi
 2181              		.loc 2 554 92
 2182 001a 488B45F8 		movq	-8(%rbp), %rax
 2183 001e 0FB74010 		movzwl	16(%rax), %eax
 2184              		.loc 2 554 5
 2185 0022 0FBFC8   		movswl	%ax, %ecx
 2186              		.loc 2 554 70
 2187 0025 488B45F8 		movq	-8(%rbp), %rax
 2188 0029 0FB7400E 		movzwl	14(%rax), %eax
 2189              		.loc 2 554 5
 2190 002d 0FBFD0   		movswl	%ax, %edx
 2191              		.loc 2 554 52
 2192 0030 488B45F8 		movq	-8(%rbp), %rax
 2193 0034 0FB7400C 		movzwl	12(%rax), %eax
 2194              		.loc 2 554 5
 2195 0038 0FBFF0   		movswl	%ax, %esi
 2196              		.loc 2 554 34
 2197 003b 488B45F8 		movq	-8(%rbp), %rax
 2198 003f 0FB7400A 		movzwl	10(%rax), %eax
 2199              		.loc 2 554 5
 2200 0043 98       		cwtl
 2201 0044 4189F8   		movl	%edi, %r8d
 2202 0047 89C7     		movl	%eax, %edi
 2203 0049 E8000000 		call	drawRectangle@PLT
 2203      00
 555:src/main.c    ****     numPickups -= 1;
 2204              		.loc 2 555 16
 2205 004e 8B050000 		movl	numPickups(%rip), %eax
 2205      0000
 2206 0054 83E801   		subl	$1, %eax
 2207 0057 89050000 		movl	%eax, numPickups(%rip)
 2207      0000
 556:src/main.c    ****     *pickup = pickups[numPickups];
 2208              		.loc 2 556 22
 2209 005d 8B050000 		movl	numPickups(%rip), %eax
 2209      0000
 2210              		.loc 2 556 13
 2211 0063 488B4DF8 		movq	-8(%rbp), %rcx
 2212 0067 4898     		cltq
 2213 0069 48C1E005 		salq	$5, %rax
 2214 006d 4889C7   		movq	%rax, %rdi
 2215 0070 488D3500 		leaq	pickups(%rip), %rsi
 2215      000000
 2216 0077 488B0437 		movq	(%rdi,%rsi), %rax
 2217 007b 488B5437 		movq	8(%rdi,%rsi), %rdx
 2217      08
 2218 0080 488901   		movq	%rax, (%rcx)
 2219 0083 48895108 		movq	%rdx, 8(%rcx)
 2220 0087 488B4437 		movq	16(%rdi,%rsi), %rax
 2220      10
 2221 008c 488B5437 		movq	24(%rdi,%rsi), %rdx
 2221      18
 2222 0091 48894110 		movq	%rax, 16(%rcx)
 2223 0095 48895118 		movq	%rdx, 24(%rcx)
 557:src/main.c    **** }
 2224              		.loc 2 557 1
 2225 0099 90       		nop
 2226 009a C9       		leave
 2227              		.cfi_def_cfa 7, 8
 2228 009b C3       		ret
 2229              		.cfi_endproc
 2230              	.LFE17:
 2232              		.section	.text.washEntity,"ax",@progbits
 2233              		.globl	washEntity
 2235              	washEntity:
 2236              	.LFB18:
 558:src/main.c    **** 
 559:src/main.c    **** //erases image of entity
 560:src/main.c    **** void washEntity(uEntity *entity)
 561:src/main.c    **** {
 2237              		.loc 2 561 1
 2238              		.cfi_startproc
 2239 0000 F30F1EFA 		endbr64
 2240 0004 55       		pushq	%rbp
 2241              		.cfi_def_cfa_offset 16
 2242              		.cfi_offset 6, -16
 2243 0005 4889E5   		movq	%rsp, %rbp
 2244              		.cfi_def_cfa_register 6
 2245 0008 4883EC20 		subq	$32, %rsp
 2246 000c 48897DE8 		movq	%rdi, -24(%rbp)
 562:src/main.c    ****     int j = ((entity->y >= UBound) ? (0) : (UBound - entity->y));
 2247              		.loc 2 562 21
 2248 0010 488B45E8 		movq	-24(%rbp), %rax
 2249 0014 0FB74004 		movzwl	4(%rax), %eax
 2250              		.loc 2 562 42
 2251 0018 6683F807 		cmpw	$7, %ax
 2252 001c 7F14     		jg	.L113
 2253              		.loc 2 562 60 discriminator 1
 2254 001e 488B45E8 		movq	-24(%rbp), %rax
 2255 0022 0FB74004 		movzwl	4(%rax), %eax
 2256 0026 98       		cwtl
 2257              		.loc 2 562 42 discriminator 1
 2258 0027 BA080000 		movl	$8, %edx
 2258      00
 2259 002c 29C2     		subl	%eax, %edx
 2260 002e 89D0     		movl	%edx, %eax
 2261 0030 EB05     		jmp	.L114
 2262              	.L113:
 2263              		.loc 2 562 42 is_stmt 0 discriminator 2
 2264 0032 B8000000 		movl	$0, %eax
 2264      00
 2265              	.L114:
 2266              		.loc 2 562 9 is_stmt 1 discriminator 4
 2267 0037 8945FC   		movl	%eax, -4(%rbp)
 563:src/main.c    ****     drawRectangle( entity->x, entity->y + j, entity->width, (entity->height) - j, bgColor );
 2268              		.loc 2 563 5 discriminator 4
 2269 003a 0FB70500 		movzwl	bgColor(%rip), %eax
 2269      000000
 2270 0041 0FB7F8   		movzwl	%ax, %edi
 2271              		.loc 2 563 68 discriminator 4
 2272 0044 488B45E8 		movq	-24(%rbp), %rax
 2273 0048 0FB74008 		movzwl	8(%rax), %eax
 2274 004c 98       		cwtl
 2275              		.loc 2 563 5 discriminator 4
 2276 004d 2B45FC   		subl	-4(%rbp), %eax
 2277 0050 89C1     		movl	%eax, %ecx
 2278              		.loc 2 563 52 discriminator 4
 2279 0052 488B45E8 		movq	-24(%rbp), %rax
 2280 0056 0FB74006 		movzwl	6(%rax), %eax
 2281              		.loc 2 563 5 discriminator 4
 2282 005a 0FBFD0   		movswl	%ax, %edx
 2283              		.loc 2 563 37 discriminator 4
 2284 005d 488B45E8 		movq	-24(%rbp), %rax
 2285 0061 0FB74004 		movzwl	4(%rax), %eax
 2286 0065 0FBFF0   		movswl	%ax, %esi
 2287              		.loc 2 563 5 discriminator 4
 2288 0068 8B45FC   		movl	-4(%rbp), %eax
 2289 006b 01C6     		addl	%eax, %esi
 2290              		.loc 2 563 26 discriminator 4
 2291 006d 488B45E8 		movq	-24(%rbp), %rax
 2292 0071 0FB74002 		movzwl	2(%rax), %eax
 2293              		.loc 2 563 5 discriminator 4
 2294 0075 98       		cwtl
 2295 0076 4189F8   		movl	%edi, %r8d
 2296 0079 89C7     		movl	%eax, %edi
 2297 007b E8000000 		call	drawRectangle@PLT
 2297      00
 564:src/main.c    **** }
 2298              		.loc 2 564 1 discriminator 4
 2299 0080 90       		nop
 2300 0081 C9       		leave
 2301              		.cfi_def_cfa 7, 8
 2302 0082 C3       		ret
 2303              		.cfi_endproc
 2304              	.LFE18:
 2306              		.section	.text.level1,"ax",@progbits
 2307              		.globl	level1
 2309              	level1:
 2310              	.LFB19:
 565:src/main.c    **** 
 566:src/main.c    **** char level1()
 567:src/main.c    **** {
 2311              		.loc 2 567 1
 2312              		.cfi_startproc
 2313 0000 F30F1EFA 		endbr64
 2314 0004 55       		pushq	%rbp
 2315              		.cfi_def_cfa_offset 16
 2316              		.cfi_offset 6, -16
 2317 0005 4889E5   		movq	%rsp, %rbp
 2318              		.cfi_def_cfa_register 6
 2319 0008 4881ECE0 		subq	$224, %rsp
 2319      000000
 568:src/main.c    ****     if( gameClock == 300 )
 2320              		.loc 2 568 19
 2321 000f 8B050000 		movl	gameClock(%rip), %eax
 2321      0000
 2322              		.loc 2 568 7
 2323 0015 3D2C0100 		cmpl	$300, %eax
 2323      00
 2324 001a 0F85C900 		jne	.L116
 2324      0000
 2325              	.LBB19:
 569:src/main.c    ****     {
 570:src/main.c    ****         for( int i = 0; i < 3; i++ )
 2326              		.loc 2 570 18
 2327 0020 C78524FF 		movl	$0, -220(%rbp)
 2327      FFFF0000 
 2327      0000
 2328              		.loc 2 570 9
 2329 002a E9AD0000 		jmp	.L117
 2329      00
 2330              	.L118:
 2331              	.LBB20:
 571:src/main.c    ****         {
 572:src/main.c    ****             uShip *ship = createEnemyShip( 260, 72, TURINT_WIDTH, TURINT_HEIGHT, TurInt );
 2332              		.loc 2 572 27 discriminator 3
 2333 002f 4C8D0500 		leaq	TurInt(%rip), %r8
 2333      000000
 2334 0036 B9090000 		movl	$9, %ecx
 2334      00
 2335 003b BA0F0000 		movl	$15, %edx
 2335      00
 2336 0040 BE480000 		movl	$72, %esi
 2336      00
 2337 0045 BF040100 		movl	$260, %edi
 2337      00
 2338 004a E8000000 		call	createEnemyShip
 2338      00
 2339 004f 48898540 		movq	%rax, -192(%rbp)
 2339      FFFFFF
 573:src/main.c    ****             ship->health = 40;
 2340              		.loc 2 573 26 discriminator 3
 2341 0056 488B8540 		movq	-192(%rbp), %rax
 2341      FFFFFF
 2342 005d 66C70028 		movw	$40, (%rax)
 2342      00
 574:src/main.c    ****             ship->entity.x += i * 10;
 2343              		.loc 2 574 28 discriminator 3
 2344 0062 488B8540 		movq	-192(%rbp), %rax
 2344      FFFFFF
 2345 0069 0FB7400A 		movzwl	10(%rax), %eax
 2346 006d 89C1     		movl	%eax, %ecx
 2347 006f 8B8524FF 		movl	-220(%rbp), %eax
 2347      FFFF
 2348 0075 89C2     		movl	%eax, %edx
 2349 0077 89D0     		movl	%edx, %eax
 2350 0079 C1E002   		sall	$2, %eax
 2351 007c 01D0     		addl	%edx, %eax
 2352 007e 01C0     		addl	%eax, %eax
 2353 0080 01C8     		addl	%ecx, %eax
 2354 0082 89C2     		movl	%eax, %edx
 2355 0084 488B8540 		movq	-192(%rbp), %rax
 2355      FFFFFF
 2356 008b 6689500A 		movw	%dx, 10(%rax)
 575:src/main.c    ****             ship->entity.y += i * 20;
 2357              		.loc 2 575 28 discriminator 3
 2358 008f 488B8540 		movq	-192(%rbp), %rax
 2358      FFFFFF
 2359 0096 0FB7400C 		movzwl	12(%rax), %eax
 2360 009a 89C1     		movl	%eax, %ecx
 2361 009c 8B8524FF 		movl	-220(%rbp), %eax
 2361      FFFF
 2362 00a2 89C2     		movl	%eax, %edx
 2363 00a4 89D0     		movl	%edx, %eax
 2364 00a6 C1E002   		sall	$2, %eax
 2365 00a9 01D0     		addl	%edx, %eax
 2366 00ab C1E002   		sall	$2, %eax
 2367 00ae 01C8     		addl	%ecx, %eax
 2368 00b0 89C2     		movl	%eax, %edx
 2369 00b2 488B8540 		movq	-192(%rbp), %rax
 2369      FFFFFF
 2370 00b9 6689500C 		movw	%dx, 12(%rax)
 576:src/main.c    ****             ship->entity.xVel = -1;
 2371              		.loc 2 576 31 discriminator 3
 2372 00bd 488B8540 		movq	-192(%rbp), %rax
 2372      FFFFFF
 2373 00c4 66C74012 		movw	$-1, 18(%rax)
 2373      FFFF
 577:src/main.c    ****             ship->ai = 1;
 2374              		.loc 2 577 22 discriminator 3
 2375 00ca 488B8540 		movq	-192(%rbp), %rax
 2375      FFFFFF
 2376 00d1 C6400201 		movb	$1, 2(%rax)
 2377              	.LBE20:
 570:src/main.c    ****         {
 2378              		.loc 2 570 33 discriminator 3
 2379 00d5 838524FF 		addl	$1, -220(%rbp)
 2379      FFFF01
 2380              	.L117:
 570:src/main.c    ****         {
 2381              		.loc 2 570 9 discriminator 1
 2382 00dc 83BD24FF 		cmpl	$2, -220(%rbp)
 2382      FFFF02
 2383 00e3 0F8E46FF 		jle	.L118
 2383      FFFF
 2384              	.L116:
 2385              	.LBE19:
 578:src/main.c    ****         }
 579:src/main.c    ****     }
 580:src/main.c    ****     if( gameClock == 400 )
 2386              		.loc 2 580 19
 2387 00e9 8B050000 		movl	gameClock(%rip), %eax
 2387      0000
 2388              		.loc 2 580 7
 2389 00ef 3D900100 		cmpl	$400, %eax
 2389      00
 2390 00f4 7532     		jne	.L119
 2391              	.LBB21:
 581:src/main.c    ****     {
 582:src/main.c    ****         uShip *ship = createEnemyShip( 200, -20, TURINT_WIDTH, TURINT_HEIGHT, TurInt );
 2392              		.loc 2 582 23
 2393 00f6 4C8D0500 		leaq	TurInt(%rip), %r8
 2393      000000
 2394 00fd B9090000 		movl	$9, %ecx
 2394      00
 2395 0102 BA0F0000 		movl	$15, %edx
 2395      00
 2396 0107 BEECFFFF 		movl	$-20, %esi
 2396      FF
 2397 010c BFC80000 		movl	$200, %edi
 2397      00
 2398 0111 E8000000 		call	createEnemyShip
 2398      00
 2399 0116 48898548 		movq	%rax, -184(%rbp)
 2399      FFFFFF
 583:src/main.c    ****         ship->ai = 3;
 2400              		.loc 2 583 18
 2401 011d 488B8548 		movq	-184(%rbp), %rax
 2401      FFFFFF
 2402 0124 C6400203 		movb	$3, 2(%rax)
 2403              	.L119:
 2404              	.LBE21:
 584:src/main.c    ****     }
 585:src/main.c    ****     if( gameClock == 500 )
 2405              		.loc 2 585 19
 2406 0128 8B050000 		movl	gameClock(%rip), %eax
 2406      0000
 2407              		.loc 2 585 7
 2408 012e 3DF40100 		cmpl	$500, %eax
 2408      00
 2409 0133 7532     		jne	.L120
 2410              	.LBB22:
 586:src/main.c    ****     {
 587:src/main.c    ****         uShip *ship = createEnemyShip( 200, -20, TURINT_WIDTH, TURINT_HEIGHT, TurInt );
 2411              		.loc 2 587 23
 2412 0135 4C8D0500 		leaq	TurInt(%rip), %r8
 2412      000000
 2413 013c B9090000 		movl	$9, %ecx
 2413      00
 2414 0141 BA0F0000 		movl	$15, %edx
 2414      00
 2415 0146 BEECFFFF 		movl	$-20, %esi
 2415      FF
 2416 014b BFC80000 		movl	$200, %edi
 2416      00
 2417 0150 E8000000 		call	createEnemyShip
 2417      00
 2418 0155 48898550 		movq	%rax, -176(%rbp)
 2418      FFFFFF
 588:src/main.c    ****         ship->ai = 6;
 2419              		.loc 2 588 18
 2420 015c 488B8550 		movq	-176(%rbp), %rax
 2420      FFFFFF
 2421 0163 C6400206 		movb	$6, 2(%rax)
 2422              	.L120:
 2423              	.LBE22:
 589:src/main.c    ****     }
 590:src/main.c    ****     if( gameClock == 600 )
 2424              		.loc 2 590 19
 2425 0167 8B050000 		movl	gameClock(%rip), %eax
 2425      0000
 2426              		.loc 2 590 7
 2427 016d 3D580200 		cmpl	$600, %eax
 2427      00
 2428 0172 7541     		jne	.L121
 2429              	.LBB23:
 591:src/main.c    ****     {
 592:src/main.c    ****         uPickup *pickup = createPickup( 280, 120, HEALTHPICKUP_WIDTH, HEALTHPICKUP_HEIGHT, HealthPi
 2430              		.loc 2 592 27
 2431 0174 4C8D0500 		leaq	HealthPickup(%rip), %r8
 2431      000000
 2432 017b B90C0000 		movl	$12, %ecx
 2432      00
 2433 0180 BA0C0000 		movl	$12, %edx
 2433      00
 2434 0185 BE780000 		movl	$120, %esi
 2434      00
 2435 018a BF180100 		movl	$280, %edi
 2435      00
 2436 018f E8000000 		call	createPickup
 2436      00
 2437 0194 48898558 		movq	%rax, -168(%rbp)
 2437      FFFFFF
 593:src/main.c    ****         pickup->type = Health;
 2438              		.loc 2 593 22
 2439 019b 488B8558 		movq	-168(%rbp), %rax
 2439      FFFFFF
 2440 01a2 C7000000 		movl	$0, (%rax)
 2440      0000
 594:src/main.c    ****         pickup->entity.xVel = -1;
 2441              		.loc 2 594 29
 2442 01a8 488B8558 		movq	-168(%rbp), %rax
 2442      FFFFFF
 2443 01af 66C74012 		movw	$-1, 18(%rax)
 2443      FFFF
 2444              	.L121:
 2445              	.LBE23:
 595:src/main.c    ****     }
 596:src/main.c    ****     if( gameClock == 800 )
 2446              		.loc 2 596 19
 2447 01b5 8B050000 		movl	gameClock(%rip), %eax
 2447      0000
 2448              		.loc 2 596 7
 2449 01bb 3D200300 		cmpl	$800, %eax
 2449      00
 2450 01c0 7532     		jne	.L122
 2451              	.LBB24:
 597:src/main.c    ****     {
 598:src/main.c    ****         uShip *ship = createEnemyShip( 100, -20, TURINT_WIDTH, TURINT_HEIGHT, TurInt );
 2452              		.loc 2 598 23
 2453 01c2 4C8D0500 		leaq	TurInt(%rip), %r8
 2453      000000
 2454 01c9 B9090000 		movl	$9, %ecx
 2454      00
 2455 01ce BA0F0000 		movl	$15, %edx
 2455      00
 2456 01d3 BEECFFFF 		movl	$-20, %esi
 2456      FF
 2457 01d8 BF640000 		movl	$100, %edi
 2457      00
 2458 01dd E8000000 		call	createEnemyShip
 2458      00
 2459 01e2 48898560 		movq	%rax, -160(%rbp)
 2459      FFFFFF
 599:src/main.c    ****         ship->ai = 3;
 2460              		.loc 2 599 18
 2461 01e9 488B8560 		movq	-160(%rbp), %rax
 2461      FFFFFF
 2462 01f0 C6400203 		movb	$3, 2(%rax)
 2463              	.L122:
 2464              	.LBE24:
 600:src/main.c    ****     }
 601:src/main.c    ****     if( gameClock == 900 )
 2465              		.loc 2 601 19
 2466 01f4 8B050000 		movl	gameClock(%rip), %eax
 2466      0000
 2467              		.loc 2 601 7
 2468 01fa 3D840300 		cmpl	$900, %eax
 2468      00
 2469 01ff 753F     		jne	.L123
 2470              	.LBB25:
 602:src/main.c    ****     {
 603:src/main.c    ****         uShip *ship = createEnemyShip( 270, 70, TURINT_WIDTH, TURINT_HEIGHT, TurInt );
 2471              		.loc 2 603 23
 2472 0201 4C8D0500 		leaq	TurInt(%rip), %r8
 2472      000000
 2473 0208 B9090000 		movl	$9, %ecx
 2473      00
 2474 020d BA0F0000 		movl	$15, %edx
 2474      00
 2475 0212 BE460000 		movl	$70, %esi
 2475      00
 2476 0217 BF0E0100 		movl	$270, %edi
 2476      00
 2477 021c E8000000 		call	createEnemyShip
 2477      00
 2478 0221 48898568 		movq	%rax, -152(%rbp)
 2478      FFFFFF
 604:src/main.c    ****         ship->entity.xVel = -1;
 2479              		.loc 2 604 27
 2480 0228 488B8568 		movq	-152(%rbp), %rax
 2480      FFFFFF
 2481 022f 66C74012 		movw	$-1, 18(%rax)
 2481      FFFF
 605:src/main.c    ****         ship->ai = 3;
 2482              		.loc 2 605 18
 2483 0235 488B8568 		movq	-152(%rbp), %rax
 2483      FFFFFF
 2484 023c C6400203 		movb	$3, 2(%rax)
 2485              	.L123:
 2486              	.LBE25:
 606:src/main.c    ****     }
 607:src/main.c    ****     if( gameClock == 1000 )
 2487              		.loc 2 607 19
 2488 0240 8B050000 		movl	gameClock(%rip), %eax
 2488      0000
 2489              		.loc 2 607 7
 2490 0246 3DE80300 		cmpl	$1000, %eax
 2490      00
 2491 024b 753E     		jne	.L124
 2492              	.LBB26:
 608:src/main.c    ****     {
 609:src/main.c    ****         uShip *ship = createEnemyShip( 280, 74, TURMISSCORV_WIDTH, TURMISSCORV_HEIGHT, TurMissCorv 
 2493              		.loc 2 609 23
 2494 024d 4C8D0500 		leaq	TurMissCorv(%rip), %r8
 2494      000000
 2495 0254 B9120000 		movl	$18, %ecx
 2495      00
 2496 0259 BA190000 		movl	$25, %edx
 2496      00
 2497 025e BE4A0000 		movl	$74, %esi
 2497      00
 2498 0263 BF180100 		movl	$280, %edi
 2498      00
 2499 0268 E8000000 		call	createEnemyShip
 2499      00
 2500 026d 48898570 		movq	%rax, -144(%rbp)
 2500      FFFFFF
 610:src/main.c    ****         ship->health = 400;
 2501              		.loc 2 610 22
 2502 0274 488B8570 		movq	-144(%rbp), %rax
 2502      FFFFFF
 2503 027b 66C70090 		movw	$400, (%rax)
 2503      01
 611:src/main.c    ****         ship->ai = 5;
 2504              		.loc 2 611 18
 2505 0280 488B8570 		movq	-144(%rbp), %rax
 2505      FFFFFF
 2506 0287 C6400205 		movb	$5, 2(%rax)
 2507              	.L124:
 2508              	.LBE26:
 612:src/main.c    ****     }
 613:src/main.c    ****     if( gameClock == 1100 )
 2509              		.loc 2 613 19
 2510 028b 8B050000 		movl	gameClock(%rip), %eax
 2510      0000
 2511              		.loc 2 613 7
 2512 0291 3D4C0400 		cmpl	$1100, %eax
 2512      00
 2513 0296 0F85C900 		jne	.L125
 2513      0000
 2514              	.LBB27:
 614:src/main.c    ****     {
 615:src/main.c    ****         for( int i = 0; i < 3; i++ )
 2515              		.loc 2 615 18
 2516 029c C78528FF 		movl	$0, -216(%rbp)
 2516      FFFF0000 
 2516      0000
 2517              		.loc 2 615 9
 2518 02a6 E9AD0000 		jmp	.L126
 2518      00
 2519              	.L127:
 2520              	.LBB28:
 616:src/main.c    ****         {
 617:src/main.c    ****             uShip *ship = createEnemyShip( 260, 100, TURINT_WIDTH, TURINT_HEIGHT, TurInt );
 2521              		.loc 2 617 27 discriminator 3
 2522 02ab 4C8D0500 		leaq	TurInt(%rip), %r8
 2522      000000
 2523 02b2 B9090000 		movl	$9, %ecx
 2523      00
 2524 02b7 BA0F0000 		movl	$15, %edx
 2524      00
 2525 02bc BE640000 		movl	$100, %esi
 2525      00
 2526 02c1 BF040100 		movl	$260, %edi
 2526      00
 2527 02c6 E8000000 		call	createEnemyShip
 2527      00
 2528 02cb 48898578 		movq	%rax, -136(%rbp)
 2528      FFFFFF
 618:src/main.c    ****             ship->health = 40;
 2529              		.loc 2 618 26 discriminator 3
 2530 02d2 488B8578 		movq	-136(%rbp), %rax
 2530      FFFFFF
 2531 02d9 66C70028 		movw	$40, (%rax)
 2531      00
 619:src/main.c    ****             ship->entity.x += i * 10;
 2532              		.loc 2 619 28 discriminator 3
 2533 02de 488B8578 		movq	-136(%rbp), %rax
 2533      FFFFFF
 2534 02e5 0FB7400A 		movzwl	10(%rax), %eax
 2535 02e9 89C1     		movl	%eax, %ecx
 2536 02eb 8B8528FF 		movl	-216(%rbp), %eax
 2536      FFFF
 2537 02f1 89C2     		movl	%eax, %edx
 2538 02f3 89D0     		movl	%edx, %eax
 2539 02f5 C1E002   		sall	$2, %eax
 2540 02f8 01D0     		addl	%edx, %eax
 2541 02fa 01C0     		addl	%eax, %eax
 2542 02fc 01C8     		addl	%ecx, %eax
 2543 02fe 89C2     		movl	%eax, %edx
 2544 0300 488B8578 		movq	-136(%rbp), %rax
 2544      FFFFFF
 2545 0307 6689500A 		movw	%dx, 10(%rax)
 620:src/main.c    ****             ship->entity.y += i * 20;
 2546              		.loc 2 620 28 discriminator 3
 2547 030b 488B8578 		movq	-136(%rbp), %rax
 2547      FFFFFF
 2548 0312 0FB7400C 		movzwl	12(%rax), %eax
 2549 0316 89C1     		movl	%eax, %ecx
 2550 0318 8B8528FF 		movl	-216(%rbp), %eax
 2550      FFFF
 2551 031e 89C2     		movl	%eax, %edx
 2552 0320 89D0     		movl	%edx, %eax
 2553 0322 C1E002   		sall	$2, %eax
 2554 0325 01D0     		addl	%edx, %eax
 2555 0327 C1E002   		sall	$2, %eax
 2556 032a 01C8     		addl	%ecx, %eax
 2557 032c 89C2     		movl	%eax, %edx
 2558 032e 488B8578 		movq	-136(%rbp), %rax
 2558      FFFFFF
 2559 0335 6689500C 		movw	%dx, 12(%rax)
 621:src/main.c    ****             ship->entity.xVel = -1;
 2560              		.loc 2 621 31 discriminator 3
 2561 0339 488B8578 		movq	-136(%rbp), %rax
 2561      FFFFFF
 2562 0340 66C74012 		movw	$-1, 18(%rax)
 2562      FFFF
 622:src/main.c    ****             ship->ai = 1;
 2563              		.loc 2 622 22 discriminator 3
 2564 0346 488B8578 		movq	-136(%rbp), %rax
 2564      FFFFFF
 2565 034d C6400201 		movb	$1, 2(%rax)
 2566              	.LBE28:
 615:src/main.c    ****         {
 2567              		.loc 2 615 33 discriminator 3
 2568 0351 838528FF 		addl	$1, -216(%rbp)
 2568      FFFF01
 2569              	.L126:
 615:src/main.c    ****         {
 2570              		.loc 2 615 9 discriminator 1
 2571 0358 83BD28FF 		cmpl	$2, -216(%rbp)
 2571      FFFF02
 2572 035f 0F8E46FF 		jle	.L127
 2572      FFFF
 2573              	.L125:
 2574              	.LBE27:
 623:src/main.c    ****         }
 624:src/main.c    ****     }
 625:src/main.c    ****     if( gameClock == 1200 )
 2575              		.loc 2 625 19
 2576 0365 8B050000 		movl	gameClock(%rip), %eax
 2576      0000
 2577              		.loc 2 625 7
 2578 036b 3DB00400 		cmpl	$1200, %eax
 2578      00
 2579 0370 7538     		jne	.L128
 2580              	.LBB29:
 626:src/main.c    ****     {
 627:src/main.c    ****         uPickup *pickup = createPickup( 280, 72, SHOTGUNPICKUP_WIDTH, SHOTGUNPICKUP_HEIGHT, Shotgun
 2581              		.loc 2 627 27
 2582 0372 4C8D0500 		leaq	ShotgunPickup(%rip), %r8
 2582      000000
 2583 0379 B90C0000 		movl	$12, %ecx
 2583      00
 2584 037e BA0C0000 		movl	$12, %edx
 2584      00
 2585 0383 BE480000 		movl	$72, %esi
 2585      00
 2586 0388 BF180100 		movl	$280, %edi
 2586      00
 2587 038d E8000000 		call	createPickup
 2587      00
 2588 0392 48894580 		movq	%rax, -128(%rbp)
 628:src/main.c    ****         pickup->type = Shotgun;
 2589              		.loc 2 628 22
 2590 0396 488B4580 		movq	-128(%rbp), %rax
 2591 039a C7000200 		movl	$2, (%rax)
 2591      0000
 629:src/main.c    ****         pickup->entity.xVel = -1;
 2592              		.loc 2 629 29
 2593 03a0 488B4580 		movq	-128(%rbp), %rax
 2594 03a4 66C74012 		movw	$-1, 18(%rax)
 2594      FFFF
 2595              	.L128:
 2596              	.LBE29:
 630:src/main.c    ****     }
 631:src/main.c    ****     if( gameClock == 1400 )
 2597              		.loc 2 631 19
 2598 03aa 8B050000 		movl	gameClock(%rip), %eax
 2598      0000
 2599              		.loc 2 631 7
 2600 03b0 3D780500 		cmpl	$1400, %eax
 2600      00
 2601 03b5 0F858300 		jne	.L129
 2601      0000
 2602              	.LBB30:
 632:src/main.c    ****     {
 633:src/main.c    ****         for( int i = 0; i < 5; i++ )
 2603              		.loc 2 633 18
 2604 03bb C7852CFF 		movl	$0, -212(%rbp)
 2604      FFFF0000 
 2604      0000
 2605              		.loc 2 633 9
 2606 03c5 EB6E     		jmp	.L130
 2607              	.L131:
 2608              	.LBB31:
 634:src/main.c    ****         {
 635:src/main.c    ****             uShip *ship = createEnemyShip( 260, 30, TURINT_WIDTH, TURINT_HEIGHT, TurInt );
 2609              		.loc 2 635 27 discriminator 3
 2610 03c7 4C8D0500 		leaq	TurInt(%rip), %r8
 2610      000000
 2611 03ce B9090000 		movl	$9, %ecx
 2611      00
 2612 03d3 BA0F0000 		movl	$15, %edx
 2612      00
 2613 03d8 BE1E0000 		movl	$30, %esi
 2613      00
 2614 03dd BF040100 		movl	$260, %edi
 2614      00
 2615 03e2 E8000000 		call	createEnemyShip
 2615      00
 2616 03e7 48894588 		movq	%rax, -120(%rbp)
 636:src/main.c    ****             ship->health = 40;
 2617              		.loc 2 636 26 discriminator 3
 2618 03eb 488B4588 		movq	-120(%rbp), %rax
 2619 03ef 66C70028 		movw	$40, (%rax)
 2619      00
 637:src/main.c    ****             ship->entity.y += i * 20;
 2620              		.loc 2 637 28 discriminator 3
 2621 03f4 488B4588 		movq	-120(%rbp), %rax
 2622 03f8 0FB7400C 		movzwl	12(%rax), %eax
 2623 03fc 89C1     		movl	%eax, %ecx
 2624 03fe 8B852CFF 		movl	-212(%rbp), %eax
 2624      FFFF
 2625 0404 89C2     		movl	%eax, %edx
 2626 0406 89D0     		movl	%edx, %eax
 2627 0408 C1E002   		sall	$2, %eax
 2628 040b 01D0     		addl	%edx, %eax
 2629 040d C1E002   		sall	$2, %eax
 2630 0410 01C8     		addl	%ecx, %eax
 2631 0412 89C2     		movl	%eax, %edx
 2632 0414 488B4588 		movq	-120(%rbp), %rax
 2633 0418 6689500C 		movw	%dx, 12(%rax)
 638:src/main.c    ****             ship->entity.xVel = -1;
 2634              		.loc 2 638 31 discriminator 3
 2635 041c 488B4588 		movq	-120(%rbp), %rax
 2636 0420 66C74012 		movw	$-1, 18(%rax)
 2636      FFFF
 639:src/main.c    ****             ship->ai = 1;
 2637              		.loc 2 639 22 discriminator 3
 2638 0426 488B4588 		movq	-120(%rbp), %rax
 2639 042a C6400201 		movb	$1, 2(%rax)
 2640              	.LBE31:
 633:src/main.c    ****         {
 2641              		.loc 2 633 33 discriminator 3
 2642 042e 83852CFF 		addl	$1, -212(%rbp)
 2642      FFFF01
 2643              	.L130:
 633:src/main.c    ****         {
 2644              		.loc 2 633 9 discriminator 1
 2645 0435 83BD2CFF 		cmpl	$4, -212(%rbp)
 2645      FFFF04
 2646 043c 7E89     		jle	.L131
 2647              	.L129:
 2648              	.LBE30:
 640:src/main.c    ****         }
 641:src/main.c    ****     }
 642:src/main.c    ****     if( gameClock == 1600 )
 2649              		.loc 2 642 19
 2650 043e 8B050000 		movl	gameClock(%rip), %eax
 2650      0000
 2651              		.loc 2 642 7
 2652 0444 3D400600 		cmpl	$1600, %eax
 2652      00
 2653 0449 7558     		jne	.L132
 2654              	.LBB32:
 643:src/main.c    ****     {
 644:src/main.c    ****         uShip *ship = createEnemyShip( 150, 190, TURINT_WIDTH, TURINT_HEIGHT, TurInt );
 2655              		.loc 2 644 23
 2656 044b 4C8D0500 		leaq	TurInt(%rip), %r8
 2656      000000
 2657 0452 B9090000 		movl	$9, %ecx
 2657      00
 2658 0457 BA0F0000 		movl	$15, %edx
 2658      00
 2659 045c BEBE0000 		movl	$190, %esi
 2659      00
 2660 0461 BF960000 		movl	$150, %edi
 2660      00
 2661 0466 E8000000 		call	createEnemyShip
 2661      00
 2662 046b 48894590 		movq	%rax, -112(%rbp)
 645:src/main.c    ****         ship->ai = 2;
 2663              		.loc 2 645 18
 2664 046f 488B4590 		movq	-112(%rbp), %rax
 2665 0473 C6400202 		movb	$2, 2(%rax)
 646:src/main.c    ****         uShip *ship1 = createEnemyShip( 140, -20, TURINT_WIDTH, TURINT_HEIGHT, TurInt );
 2666              		.loc 2 646 24
 2667 0477 4C8D0500 		leaq	TurInt(%rip), %r8
 2667      000000
 2668 047e B9090000 		movl	$9, %ecx
 2668      00
 2669 0483 BA0F0000 		movl	$15, %edx
 2669      00
 2670 0488 BEECFFFF 		movl	$-20, %esi
 2670      FF
 2671 048d BF8C0000 		movl	$140, %edi
 2671      00
 2672 0492 E8000000 		call	createEnemyShip
 2672      00
 2673 0497 48894598 		movq	%rax, -104(%rbp)
 647:src/main.c    ****         ship1->ai = 3;
 2674              		.loc 2 647 19
 2675 049b 488B4598 		movq	-104(%rbp), %rax
 2676 049f C6400203 		movb	$3, 2(%rax)
 2677              	.L132:
 2678              	.LBE32:
 648:src/main.c    ****     }
 649:src/main.c    ****     if( gameClock == 1700 )
 2679              		.loc 2 649 19
 2680 04a3 8B050000 		movl	gameClock(%rip), %eax
 2680      0000
 2681              		.loc 2 649 7
 2682 04a9 3DA40600 		cmpl	$1700, %eax
 2682      00
 2683 04ae 0F85B100 		jne	.L133
 2683      0000
 2684              	.LBB33:
 650:src/main.c    ****     {
 651:src/main.c    ****         for( int i = 0; i < 3; i++ )
 2685              		.loc 2 651 18
 2686 04b4 C78530FF 		movl	$0, -208(%rbp)
 2686      FFFF0000 
 2686      0000
 2687              		.loc 2 651 9
 2688 04be E9950000 		jmp	.L134
 2688      00
 2689              	.L135:
 2690              	.LBB34:
 652:src/main.c    ****         {
 653:src/main.c    ****             uShip *ship = createEnemyShip( 260, 72, TURINT_WIDTH, TURINT_HEIGHT, TurInt );
 2691              		.loc 2 653 27 discriminator 3
 2692 04c3 4C8D0500 		leaq	TurInt(%rip), %r8
 2692      000000
 2693 04ca B9090000 		movl	$9, %ecx
 2693      00
 2694 04cf BA0F0000 		movl	$15, %edx
 2694      00
 2695 04d4 BE480000 		movl	$72, %esi
 2695      00
 2696 04d9 BF040100 		movl	$260, %edi
 2696      00
 2697 04de E8000000 		call	createEnemyShip
 2697      00
 2698 04e3 488945A0 		movq	%rax, -96(%rbp)
 654:src/main.c    ****             ship->health = 40;
 2699              		.loc 2 654 26 discriminator 3
 2700 04e7 488B45A0 		movq	-96(%rbp), %rax
 2701 04eb 66C70028 		movw	$40, (%rax)
 2701      00
 655:src/main.c    ****             ship->entity.x += i * 10;
 2702              		.loc 2 655 28 discriminator 3
 2703 04f0 488B45A0 		movq	-96(%rbp), %rax
 2704 04f4 0FB7400A 		movzwl	10(%rax), %eax
 2705 04f8 89C1     		movl	%eax, %ecx
 2706 04fa 8B8530FF 		movl	-208(%rbp), %eax
 2706      FFFF
 2707 0500 89C2     		movl	%eax, %edx
 2708 0502 89D0     		movl	%edx, %eax
 2709 0504 C1E002   		sall	$2, %eax
 2710 0507 01D0     		addl	%edx, %eax
 2711 0509 01C0     		addl	%eax, %eax
 2712 050b 01C8     		addl	%ecx, %eax
 2713 050d 89C2     		movl	%eax, %edx
 2714 050f 488B45A0 		movq	-96(%rbp), %rax
 2715 0513 6689500A 		movw	%dx, 10(%rax)
 656:src/main.c    ****             ship->entity.y += i * 20;
 2716              		.loc 2 656 28 discriminator 3
 2717 0517 488B45A0 		movq	-96(%rbp), %rax
 2718 051b 0FB7400C 		movzwl	12(%rax), %eax
 2719 051f 89C1     		movl	%eax, %ecx
 2720 0521 8B8530FF 		movl	-208(%rbp), %eax
 2720      FFFF
 2721 0527 89C2     		movl	%eax, %edx
 2722 0529 89D0     		movl	%edx, %eax
 2723 052b C1E002   		sall	$2, %eax
 2724 052e 01D0     		addl	%edx, %eax
 2725 0530 C1E002   		sall	$2, %eax
 2726 0533 01C8     		addl	%ecx, %eax
 2727 0535 89C2     		movl	%eax, %edx
 2728 0537 488B45A0 		movq	-96(%rbp), %rax
 2729 053b 6689500C 		movw	%dx, 12(%rax)
 657:src/main.c    ****             ship->entity.xVel = -1;
 2730              		.loc 2 657 31 discriminator 3
 2731 053f 488B45A0 		movq	-96(%rbp), %rax
 2732 0543 66C74012 		movw	$-1, 18(%rax)
 2732      FFFF
 658:src/main.c    ****             ship->ai = 1;
 2733              		.loc 2 658 22 discriminator 3
 2734 0549 488B45A0 		movq	-96(%rbp), %rax
 2735 054d C6400201 		movb	$1, 2(%rax)
 2736              	.LBE34:
 651:src/main.c    ****         {
 2737              		.loc 2 651 33 discriminator 3
 2738 0551 838530FF 		addl	$1, -208(%rbp)
 2738      FFFF01
 2739              	.L134:
 651:src/main.c    ****         {
 2740              		.loc 2 651 9 discriminator 1
 2741 0558 83BD30FF 		cmpl	$2, -208(%rbp)
 2741      FFFF02
 2742 055f 0F8E5EFF 		jle	.L135
 2742      FFFF
 2743              	.L133:
 2744              	.LBE33:
 659:src/main.c    ****         }
 660:src/main.c    ****     }
 661:src/main.c    ****     if( gameClock == 1900 )
 2745              		.loc 2 661 19
 2746 0565 8B050000 		movl	gameClock(%rip), %eax
 2746      0000
 2747              		.loc 2 661 7
 2748 056b 3D6C0700 		cmpl	$1900, %eax
 2748      00
 2749 0570 7538     		jne	.L136
 2750              	.LBB35:
 662:src/main.c    ****     {
 663:src/main.c    ****         uPickup *pickup = createPickup( 280, 10, HEALTHPICKUP_WIDTH, HEALTHPICKUP_HEIGHT, RocketPic
 2751              		.loc 2 663 27
 2752 0572 4C8D0500 		leaq	RocketPickup(%rip), %r8
 2752      000000
 2753 0579 B90C0000 		movl	$12, %ecx
 2753      00
 2754 057e BA0C0000 		movl	$12, %edx
 2754      00
 2755 0583 BE0A0000 		movl	$10, %esi
 2755      00
 2756 0588 BF180100 		movl	$280, %edi
 2756      00
 2757 058d E8000000 		call	createPickup
 2757      00
 2758 0592 488945A8 		movq	%rax, -88(%rbp)
 664:src/main.c    ****         pickup->type = Ammo;
 2759              		.loc 2 664 22
 2760 0596 488B45A8 		movq	-88(%rbp), %rax
 2761 059a C7000100 		movl	$1, (%rax)
 2761      0000
 665:src/main.c    ****         pickup->entity.xVel = -1;
 2762              		.loc 2 665 29
 2763 05a0 488B45A8 		movq	-88(%rbp), %rax
 2764 05a4 66C74012 		movw	$-1, 18(%rax)
 2764      FFFF
 2765              	.L136:
 2766              	.LBE35:
 666:src/main.c    ****     }
 667:src/main.c    ****     if( gameClock == 2000 )
 2767              		.loc 2 667 19
 2768 05aa 8B050000 		movl	gameClock(%rip), %eax
 2768      0000
 2769              		.loc 2 667 7
 2770 05b0 3DD00700 		cmpl	$2000, %eax
 2770      00
 2771 05b5 7538     		jne	.L137
 2772              	.LBB36:
 668:src/main.c    ****     {
 669:src/main.c    ****         uPickup *pickup = createPickup( 280, 40, HEALTHPICKUP_WIDTH, HEALTHPICKUP_HEIGHT, HealthPic
 2773              		.loc 2 669 27
 2774 05b7 4C8D0500 		leaq	HealthPickup(%rip), %r8
 2774      000000
 2775 05be B90C0000 		movl	$12, %ecx
 2775      00
 2776 05c3 BA0C0000 		movl	$12, %edx
 2776      00
 2777 05c8 BE280000 		movl	$40, %esi
 2777      00
 2778 05cd BF180100 		movl	$280, %edi
 2778      00
 2779 05d2 E8000000 		call	createPickup
 2779      00
 2780 05d7 488945B0 		movq	%rax, -80(%rbp)
 670:src/main.c    ****         pickup->type = Health;
 2781              		.loc 2 670 22
 2782 05db 488B45B0 		movq	-80(%rbp), %rax
 2783 05df C7000000 		movl	$0, (%rax)
 2783      0000
 671:src/main.c    ****         pickup->entity.xVel = -1;
 2784              		.loc 2 671 29
 2785 05e5 488B45B0 		movq	-80(%rbp), %rax
 2786 05e9 66C74012 		movw	$-1, 18(%rax)
 2786      FFFF
 2787              	.L137:
 2788              	.LBE36:
 672:src/main.c    ****     }
 673:src/main.c    ****     if( gameClock == 2050 )
 2789              		.loc 2 673 19
 2790 05ef 8B050000 		movl	gameClock(%rip), %eax
 2790      0000
 2791              		.loc 2 673 7
 2792 05f5 3D020800 		cmpl	$2050, %eax
 2792      00
 2793 05fa 7535     		jne	.L138
 2794              	.LBB37:
 674:src/main.c    ****     {
 675:src/main.c    ****         uShip *ship = createEnemyShip( 200, -20, TURCORV_WIDTH, TURCORV_HEIGHT, TurCorv );
 2795              		.loc 2 675 23
 2796 05fc 4C8D0500 		leaq	TurCorv(%rip), %r8
 2796      000000
 2797 0603 B90C0000 		movl	$12, %ecx
 2797      00
 2798 0608 BA190000 		movl	$25, %edx
 2798      00
 2799 060d BEECFFFF 		movl	$-20, %esi
 2799      FF
 2800 0612 BFC80000 		movl	$200, %edi
 2800      00
 2801 0617 E8000000 		call	createEnemyShip
 2801      00
 2802 061c 488945B8 		movq	%rax, -72(%rbp)
 676:src/main.c    ****         ship->health = 300;
 2803              		.loc 2 676 22
 2804 0620 488B45B8 		movq	-72(%rbp), %rax
 2805 0624 66C7002C 		movw	$300, (%rax)
 2805      01
 677:src/main.c    ****         ship->ai = 6;
 2806              		.loc 2 677 18
 2807 0629 488B45B8 		movq	-72(%rbp), %rax
 2808 062d C6400206 		movb	$6, 2(%rax)
 2809              	.L138:
 2810              	.LBE37:
 678:src/main.c    ****     }
 679:src/main.c    ****     if( gameClock == 2100 )
 2811              		.loc 2 679 19
 2812 0631 8B050000 		movl	gameClock(%rip), %eax
 2812      0000
 2813              		.loc 2 679 7
 2814 0637 3D340800 		cmpl	$2100, %eax
 2814      00
 2815 063c 0F85B100 		jne	.L139
 2815      0000
 2816              	.LBB38:
 680:src/main.c    ****     {
 681:src/main.c    ****         for( int i = 0; i < 4; i++ )
 2817              		.loc 2 681 18
 2818 0642 C78534FF 		movl	$0, -204(%rbp)
 2818      FFFF0000 
 2818      0000
 2819              		.loc 2 681 9
 2820 064c E9950000 		jmp	.L140
 2820      00
 2821              	.L141:
 2822              	.LBB39:
 682:src/main.c    ****         {
 683:src/main.c    ****             uShip *ship = createEnemyShip( 260, 72, TURINT_WIDTH, TURINT_HEIGHT, TurInt );
 2823              		.loc 2 683 27 discriminator 3
 2824 0651 4C8D0500 		leaq	TurInt(%rip), %r8
 2824      000000
 2825 0658 B9090000 		movl	$9, %ecx
 2825      00
 2826 065d BA0F0000 		movl	$15, %edx
 2826      00
 2827 0662 BE480000 		movl	$72, %esi
 2827      00
 2828 0667 BF040100 		movl	$260, %edi
 2828      00
 2829 066c E8000000 		call	createEnemyShip
 2829      00
 2830 0671 488945C0 		movq	%rax, -64(%rbp)
 684:src/main.c    ****             ship->health = 40;
 2831              		.loc 2 684 26 discriminator 3
 2832 0675 488B45C0 		movq	-64(%rbp), %rax
 2833 0679 66C70028 		movw	$40, (%rax)
 2833      00
 685:src/main.c    ****             ship->entity.x += i * 10;
 2834              		.loc 2 685 28 discriminator 3
 2835 067e 488B45C0 		movq	-64(%rbp), %rax
 2836 0682 0FB7400A 		movzwl	10(%rax), %eax
 2837 0686 89C1     		movl	%eax, %ecx
 2838 0688 8B8534FF 		movl	-204(%rbp), %eax
 2838      FFFF
 2839 068e 89C2     		movl	%eax, %edx
 2840 0690 89D0     		movl	%edx, %eax
 2841 0692 C1E002   		sall	$2, %eax
 2842 0695 01D0     		addl	%edx, %eax
 2843 0697 01C0     		addl	%eax, %eax
 2844 0699 01C8     		addl	%ecx, %eax
 2845 069b 89C2     		movl	%eax, %edx
 2846 069d 488B45C0 		movq	-64(%rbp), %rax
 2847 06a1 6689500A 		movw	%dx, 10(%rax)
 686:src/main.c    ****             ship->entity.y += i * 20;
 2848              		.loc 2 686 28 discriminator 3
 2849 06a5 488B45C0 		movq	-64(%rbp), %rax
 2850 06a9 0FB7400C 		movzwl	12(%rax), %eax
 2851 06ad 89C1     		movl	%eax, %ecx
 2852 06af 8B8534FF 		movl	-204(%rbp), %eax
 2852      FFFF
 2853 06b5 89C2     		movl	%eax, %edx
 2854 06b7 89D0     		movl	%edx, %eax
 2855 06b9 C1E002   		sall	$2, %eax
 2856 06bc 01D0     		addl	%edx, %eax
 2857 06be C1E002   		sall	$2, %eax
 2858 06c1 01C8     		addl	%ecx, %eax
 2859 06c3 89C2     		movl	%eax, %edx
 2860 06c5 488B45C0 		movq	-64(%rbp), %rax
 2861 06c9 6689500C 		movw	%dx, 12(%rax)
 687:src/main.c    ****             ship->entity.xVel = -1;
 2862              		.loc 2 687 31 discriminator 3
 2863 06cd 488B45C0 		movq	-64(%rbp), %rax
 2864 06d1 66C74012 		movw	$-1, 18(%rax)
 2864      FFFF
 688:src/main.c    ****             ship->ai = 1;
 2865              		.loc 2 688 22 discriminator 3
 2866 06d7 488B45C0 		movq	-64(%rbp), %rax
 2867 06db C6400201 		movb	$1, 2(%rax)
 2868              	.LBE39:
 681:src/main.c    ****         {
 2869              		.loc 2 681 33 discriminator 3
 2870 06df 838534FF 		addl	$1, -204(%rbp)
 2870      FFFF01
 2871              	.L140:
 681:src/main.c    ****         {
 2872              		.loc 2 681 9 discriminator 1
 2873 06e6 83BD34FF 		cmpl	$3, -204(%rbp)
 2873      FFFF03
 2874 06ed 0F8E5EFF 		jle	.L141
 2874      FFFF
 2875              	.L139:
 2876              	.LBE38:
 689:src/main.c    ****         }
 690:src/main.c    ****     }
 691:src/main.c    ****     if( gameClock == 2300 )
 2877              		.loc 2 691 19
 2878 06f3 8B050000 		movl	gameClock(%rip), %eax
 2878      0000
 2879              		.loc 2 691 7
 2880 06f9 3DFC0800 		cmpl	$2300, %eax
 2880      00
 2881 06fe 0F85B100 		jne	.L142
 2881      0000
 2882              	.LBB40:
 692:src/main.c    ****     {
 693:src/main.c    ****         for( int i = 0; i < 2; i++ )
 2883              		.loc 2 693 18
 2884 0704 C78538FF 		movl	$0, -200(%rbp)
 2884      FFFF0000 
 2884      0000
 2885              		.loc 2 693 9
 2886 070e E9950000 		jmp	.L143
 2886      00
 2887              	.L144:
 2888              	.LBB41:
 694:src/main.c    ****         {
 695:src/main.c    ****             uShip *ship = createEnemyShip( 260, 0, TURINT_WIDTH, TURINT_HEIGHT, TurInt );
 2889              		.loc 2 695 27 discriminator 3
 2890 0713 4C8D0500 		leaq	TurInt(%rip), %r8
 2890      000000
 2891 071a B9090000 		movl	$9, %ecx
 2891      00
 2892 071f BA0F0000 		movl	$15, %edx
 2892      00
 2893 0724 BE000000 		movl	$0, %esi
 2893      00
 2894 0729 BF040100 		movl	$260, %edi
 2894      00
 2895 072e E8000000 		call	createEnemyShip
 2895      00
 2896 0733 488945C8 		movq	%rax, -56(%rbp)
 696:src/main.c    ****             ship->health = 40;
 2897              		.loc 2 696 26 discriminator 3
 2898 0737 488B45C8 		movq	-56(%rbp), %rax
 2899 073b 66C70028 		movw	$40, (%rax)
 2899      00
 697:src/main.c    ****             ship->entity.x += i * 10;
 2900              		.loc 2 697 28 discriminator 3
 2901 0740 488B45C8 		movq	-56(%rbp), %rax
 2902 0744 0FB7400A 		movzwl	10(%rax), %eax
 2903 0748 89C1     		movl	%eax, %ecx
 2904 074a 8B8538FF 		movl	-200(%rbp), %eax
 2904      FFFF
 2905 0750 89C2     		movl	%eax, %edx
 2906 0752 89D0     		movl	%edx, %eax
 2907 0754 C1E002   		sall	$2, %eax
 2908 0757 01D0     		addl	%edx, %eax
 2909 0759 01C0     		addl	%eax, %eax
 2910 075b 01C8     		addl	%ecx, %eax
 2911 075d 89C2     		movl	%eax, %edx
 2912 075f 488B45C8 		movq	-56(%rbp), %rax
 2913 0763 6689500A 		movw	%dx, 10(%rax)
 698:src/main.c    ****             ship->entity.y += i * 20;
 2914              		.loc 2 698 28 discriminator 3
 2915 0767 488B45C8 		movq	-56(%rbp), %rax
 2916 076b 0FB7400C 		movzwl	12(%rax), %eax
 2917 076f 89C1     		movl	%eax, %ecx
 2918 0771 8B8538FF 		movl	-200(%rbp), %eax
 2918      FFFF
 2919 0777 89C2     		movl	%eax, %edx
 2920 0779 89D0     		movl	%edx, %eax
 2921 077b C1E002   		sall	$2, %eax
 2922 077e 01D0     		addl	%edx, %eax
 2923 0780 C1E002   		sall	$2, %eax
 2924 0783 01C8     		addl	%ecx, %eax
 2925 0785 89C2     		movl	%eax, %edx
 2926 0787 488B45C8 		movq	-56(%rbp), %rax
 2927 078b 6689500C 		movw	%dx, 12(%rax)
 699:src/main.c    ****             ship->entity.xVel = -1;
 2928              		.loc 2 699 31 discriminator 3
 2929 078f 488B45C8 		movq	-56(%rbp), %rax
 2930 0793 66C74012 		movw	$-1, 18(%rax)
 2930      FFFF
 700:src/main.c    ****             ship->ai = 3;
 2931              		.loc 2 700 22 discriminator 3
 2932 0799 488B45C8 		movq	-56(%rbp), %rax
 2933 079d C6400203 		movb	$3, 2(%rax)
 2934              	.LBE41:
 693:src/main.c    ****         {
 2935              		.loc 2 693 33 discriminator 3
 2936 07a1 838538FF 		addl	$1, -200(%rbp)
 2936      FFFF01
 2937              	.L143:
 693:src/main.c    ****         {
 2938              		.loc 2 693 9 discriminator 1
 2939 07a8 83BD38FF 		cmpl	$1, -200(%rbp)
 2939      FFFF01
 2940 07af 0F8E5EFF 		jle	.L144
 2940      FFFF
 2941              	.L142:
 2942              	.LBE40:
 701:src/main.c    ****         }
 702:src/main.c    ****     }
 703:src/main.c    ****     if( gameClock == 2400 )
 2943              		.loc 2 703 19
 2944 07b5 8B050000 		movl	gameClock(%rip), %eax
 2944      0000
 2945              		.loc 2 703 7
 2946 07bb 3D600900 		cmpl	$2400, %eax
 2946      00
 2947 07c0 753F     		jne	.L145
 2948              	.LBB42:
 704:src/main.c    ****     {
 705:src/main.c    ****         uShip *ship = createEnemyShip( 250, -30, TURMISSCORV_WIDTH, TURMISSCORV_HEIGHT, TurMissCorv
 2949              		.loc 2 705 23
 2950 07c2 4C8D0500 		leaq	TurMissCorv(%rip), %r8
 2950      000000
 2951 07c9 B9120000 		movl	$18, %ecx
 2951      00
 2952 07ce BA190000 		movl	$25, %edx
 2952      00
 2953 07d3 BEE2FFFF 		movl	$-30, %esi
 2953      FF
 2954 07d8 BFFA0000 		movl	$250, %edi
 2954      00
 2955 07dd E8000000 		call	createEnemyShip
 2955      00
 2956 07e2 488945D0 		movq	%rax, -48(%rbp)
 706:src/main.c    ****         ship->health = 400;
 2957              		.loc 2 706 22
 2958 07e6 488B45D0 		movq	-48(%rbp), %rax
 2959 07ea 66C70090 		movw	$400, (%rax)
 2959      01
 707:src/main.c    ****         ship->entity.xVel = -1;
 2960              		.loc 2 707 27
 2961 07ef 488B45D0 		movq	-48(%rbp), %rax
 2962 07f3 66C74012 		movw	$-1, 18(%rax)
 2962      FFFF
 708:src/main.c    ****         ship->ai = 5;
 2963              		.loc 2 708 18
 2964 07f9 488B45D0 		movq	-48(%rbp), %rax
 2965 07fd C6400205 		movb	$5, 2(%rax)
 2966              	.L145:
 2967              	.LBE42:
 709:src/main.c    ****     }
 710:src/main.c    ****     if( gameClock == 2450 )
 2968              		.loc 2 710 19
 2969 0801 8B050000 		movl	gameClock(%rip), %eax
 2969      0000
 2970              		.loc 2 710 7
 2971 0807 3D920900 		cmpl	$2450, %eax
 2971      00
 2972 080c 7535     		jne	.L146
 2973              	.LBB43:
 711:src/main.c    ****     {
 712:src/main.c    ****         uShip *ship = createEnemyShip( 200, 72, TURCORV_WIDTH, TURCORV_HEIGHT, TurCorv );
 2974              		.loc 2 712 23
 2975 080e 4C8D0500 		leaq	TurCorv(%rip), %r8
 2975      000000
 2976 0815 B90C0000 		movl	$12, %ecx
 2976      00
 2977 081a BA190000 		movl	$25, %edx
 2977      00
 2978 081f BE480000 		movl	$72, %esi
 2978      00
 2979 0824 BFC80000 		movl	$200, %edi
 2979      00
 2980 0829 E8000000 		call	createEnemyShip
 2980      00
 2981 082e 488945D8 		movq	%rax, -40(%rbp)
 713:src/main.c    ****         ship->health = 300;
 2982              		.loc 2 713 22
 2983 0832 488B45D8 		movq	-40(%rbp), %rax
 2984 0836 66C7002C 		movw	$300, (%rax)
 2984      01
 714:src/main.c    ****         ship->ai = 6;
 2985              		.loc 2 714 18
 2986 083b 488B45D8 		movq	-40(%rbp), %rax
 2987 083f C6400206 		movb	$6, 2(%rax)
 2988              	.L146:
 2989              	.LBE43:
 715:src/main.c    ****     }
 716:src/main.c    ****     if( gameClock == 2500 )
 2990              		.loc 2 716 19
 2991 0843 8B050000 		movl	gameClock(%rip), %eax
 2991      0000
 2992              		.loc 2 716 7
 2993 0849 3DC40900 		cmpl	$2500, %eax
 2993      00
 2994 084e 7538     		jne	.L147
 2995              	.LBB44:
 717:src/main.c    ****     {
 718:src/main.c    ****         uPickup *pickup = createPickup( 280, 50, HEALTHPICKUP_WIDTH, HEALTHPICKUP_HEIGHT, ShieldPic
 2996              		.loc 2 718 27
 2997 0850 4C8D0500 		leaq	ShieldPickup(%rip), %r8
 2997      000000
 2998 0857 B90C0000 		movl	$12, %ecx
 2998      00
 2999 085c BA0C0000 		movl	$12, %edx
 2999      00
 3000 0861 BE320000 		movl	$50, %esi
 3000      00
 3001 0866 BF180100 		movl	$280, %edi
 3001      00
 3002 086b E8000000 		call	createPickup
 3002      00
 3003 0870 488945E0 		movq	%rax, -32(%rbp)
 719:src/main.c    ****         pickup->type = Shield;
 3004              		.loc 2 719 22
 3005 0874 488B45E0 		movq	-32(%rbp), %rax
 3006 0878 C7000300 		movl	$3, (%rax)
 3006      0000
 720:src/main.c    ****         pickup->entity.xVel = -1;
 3007              		.loc 2 720 29
 3008 087e 488B45E0 		movq	-32(%rbp), %rax
 3009 0882 66C74012 		movw	$-1, 18(%rax)
 3009      FFFF
 3010              	.L147:
 3011              	.LBE44:
 721:src/main.c    ****     }
 722:src/main.c    ****     if( gameClock == 2700 )
 3012              		.loc 2 722 19
 3013 0888 8B050000 		movl	gameClock(%rip), %eax
 3013      0000
 3014              		.loc 2 722 7
 3015 088e 3D8C0A00 		cmpl	$2700, %eax
 3015      00
 3016 0893 0F85B900 		jne	.L148
 3016      0000
 3017              	.LBB45:
 723:src/main.c    ****     {
 724:src/main.c    ****         for( int i = 0; i < 2; i++ )
 3018              		.loc 2 724 18
 3019 0899 C7853CFF 		movl	$0, -196(%rbp)
 3019      FFFF0000 
 3019      0000
 3020              		.loc 2 724 9
 3021 08a3 E99D0000 		jmp	.L149
 3021      00
 3022              	.L150:
 3023              	.LBB46:
 725:src/main.c    ****         {
 726:src/main.c    ****             uShip *ship = createEnemyShip( 250, 20, TURINT_WIDTH, TURINT_HEIGHT, TurInt );
 3024              		.loc 2 726 27 discriminator 3
 3025 08a8 4C8D0500 		leaq	TurInt(%rip), %r8
 3025      000000
 3026 08af B9090000 		movl	$9, %ecx
 3026      00
 3027 08b4 BA0F0000 		movl	$15, %edx
 3027      00
 3028 08b9 BE140000 		movl	$20, %esi
 3028      00
 3029 08be BFFA0000 		movl	$250, %edi
 3029      00
 3030 08c3 E8000000 		call	createEnemyShip
 3030      00
 3031 08c8 488945E8 		movq	%rax, -24(%rbp)
 727:src/main.c    ****             ship->health = 40;
 3032              		.loc 2 727 26 discriminator 3
 3033 08cc 488B45E8 		movq	-24(%rbp), %rax
 3034 08d0 66C70028 		movw	$40, (%rax)
 3034      00
 728:src/main.c    ****             ship->entity.x += i * 10;
 3035              		.loc 2 728 28 discriminator 3
 3036 08d5 488B45E8 		movq	-24(%rbp), %rax
 3037 08d9 0FB7400A 		movzwl	10(%rax), %eax
 3038 08dd 89C1     		movl	%eax, %ecx
 3039 08df 8B853CFF 		movl	-196(%rbp), %eax
 3039      FFFF
 3040 08e5 89C2     		movl	%eax, %edx
 3041 08e7 89D0     		movl	%edx, %eax
 3042 08e9 C1E002   		sall	$2, %eax
 3043 08ec 01D0     		addl	%edx, %eax
 3044 08ee 01C0     		addl	%eax, %eax
 3045 08f0 01C8     		addl	%ecx, %eax
 3046 08f2 89C2     		movl	%eax, %edx
 3047 08f4 488B45E8 		movq	-24(%rbp), %rax
 3048 08f8 6689500A 		movw	%dx, 10(%rax)
 729:src/main.c    ****             ship->entity.y += i * 50;
 3049              		.loc 2 729 28 discriminator 3
 3050 08fc 488B45E8 		movq	-24(%rbp), %rax
 3051 0900 0FB7400C 		movzwl	12(%rax), %eax
 3052 0904 89C1     		movl	%eax, %ecx
 3053 0906 8B853CFF 		movl	-196(%rbp), %eax
 3053      FFFF
 3054 090c 89C2     		movl	%eax, %edx
 3055 090e 89D0     		movl	%edx, %eax
 3056 0910 C1E002   		sall	$2, %eax
 3057 0913 01D0     		addl	%edx, %eax
 3058 0915 8D148500 		leal	0(,%rax,4), %edx
 3058      000000
 3059 091c 01D0     		addl	%edx, %eax
 3060 091e 01C0     		addl	%eax, %eax
 3061 0920 01C8     		addl	%ecx, %eax
 3062 0922 89C2     		movl	%eax, %edx
 3063 0924 488B45E8 		movq	-24(%rbp), %rax
 3064 0928 6689500C 		movw	%dx, 12(%rax)
 730:src/main.c    ****             ship->entity.xVel = -1;
 3065              		.loc 2 730 31 discriminator 3
 3066 092c 488B45E8 		movq	-24(%rbp), %rax
 3067 0930 66C74012 		movw	$-1, 18(%rax)
 3067      FFFF
 731:src/main.c    ****             ship->ai = 3;
 3068              		.loc 2 731 22 discriminator 3
 3069 0936 488B45E8 		movq	-24(%rbp), %rax
 3070 093a C6400203 		movb	$3, 2(%rax)
 3071              	.LBE46:
 724:src/main.c    ****         {
 3072              		.loc 2 724 33 discriminator 3
 3073 093e 83853CFF 		addl	$1, -196(%rbp)
 3073      FFFF01
 3074              	.L149:
 724:src/main.c    ****         {
 3075              		.loc 2 724 9 discriminator 1
 3076 0945 83BD3CFF 		cmpl	$1, -196(%rbp)
 3076      FFFF01
 3077 094c 0F8E56FF 		jle	.L150
 3077      FFFF
 3078              	.L148:
 3079              	.LBE45:
 732:src/main.c    ****         }
 733:src/main.c    ****     }
 734:src/main.c    ****     if( gameClock == 3000 )
 3080              		.loc 2 734 19
 3081 0952 8B050000 		movl	gameClock(%rip), %eax
 3081      0000
 3082              		.loc 2 734 7
 3083 0958 3DB80B00 		cmpl	$3000, %eax
 3083      00
 3084 095d 7535     		jne	.L151
 3085              	.LBB47:
 735:src/main.c    ****     {
 736:src/main.c    ****         uShip *ship = createEnemyShip( 250, 100, TURINT_WIDTH, TURINT_HEIGHT, TurInt );
 3086              		.loc 2 736 23
 3087 095f 4C8D0500 		leaq	TurInt(%rip), %r8
 3087      000000
 3088 0966 B9090000 		movl	$9, %ecx
 3088      00
 3089 096b BA0F0000 		movl	$15, %edx
 3089      00
 3090 0970 BE640000 		movl	$100, %esi
 3090      00
 3091 0975 BFFA0000 		movl	$250, %edi
 3091      00
 3092 097a E8000000 		call	createEnemyShip
 3092      00
 3093 097f 488945F0 		movq	%rax, -16(%rbp)
 737:src/main.c    ****         ship->health = 40;
 3094              		.loc 2 737 22
 3095 0983 488B45F0 		movq	-16(%rbp), %rax
 3096 0987 66C70028 		movw	$40, (%rax)
 3096      00
 738:src/main.c    ****         ship->ai = 4;
 3097              		.loc 2 738 18
 3098 098c 488B45F0 		movq	-16(%rbp), %rax
 3099 0990 C6400204 		movb	$4, 2(%rax)
 3100              	.L151:
 3101              	.LBE47:
 739:src/main.c    ****     }
 740:src/main.c    ****     if( gameClock == 3100 )
 3102              		.loc 2 740 19
 3103 0994 8B050000 		movl	gameClock(%rip), %eax
 3103      0000
 3104              		.loc 2 740 7
 3105 099a 3D1C0C00 		cmpl	$3100, %eax
 3105      00
 3106 099f 7535     		jne	.L152
 3107              	.LBB48:
 741:src/main.c    ****     {
 742:src/main.c    ****         uShip *ship = createEnemyShip( 200, 72, TURCORV_WIDTH, TURCORV_HEIGHT, TurCorv );
 3108              		.loc 2 742 23
 3109 09a1 4C8D0500 		leaq	TurCorv(%rip), %r8
 3109      000000
 3110 09a8 B90C0000 		movl	$12, %ecx
 3110      00
 3111 09ad BA190000 		movl	$25, %edx
 3111      00
 3112 09b2 BE480000 		movl	$72, %esi
 3112      00
 3113 09b7 BFC80000 		movl	$200, %edi
 3113      00
 3114 09bc E8000000 		call	createEnemyShip
 3114      00
 3115 09c1 488945F8 		movq	%rax, -8(%rbp)
 743:src/main.c    ****         ship->health = 300;
 3116              		.loc 2 743 22
 3117 09c5 488B45F8 		movq	-8(%rbp), %rax
 3118 09c9 66C7002C 		movw	$300, (%rax)
 3118      01
 744:src/main.c    ****         ship->ai = 6;
 3119              		.loc 2 744 18
 3120 09ce 488B45F8 		movq	-8(%rbp), %rax
 3121 09d2 C6400206 		movb	$6, 2(%rax)
 3122              	.L152:
 3123              	.LBE48:
 745:src/main.c    ****     }
 746:src/main.c    ****     if( gameClock == 3500 )
 3124              		.loc 2 746 19
 3125 09d6 8B050000 		movl	gameClock(%rip), %eax
 3125      0000
 3126              		.loc 2 746 7
 3127 09dc 3DAC0D00 		cmpl	$3500, %eax
 3127      00
 3128 09e1 7511     		jne	.L153
 747:src/main.c    ****     {
 748:src/main.c    ****         level = 2;
 3129              		.loc 2 748 15
 3130 09e3 C7050000 		movl	$2, level(%rip)
 3130      00000200 
 3130      0000
 749:src/main.c    ****         return true;
 3131              		.loc 2 749 16
 3132 09ed B8010000 		movl	$1, %eax
 3132      00
 3133 09f2 EB05     		jmp	.L154
 3134              	.L153:
 750:src/main.c    ****     }
 751:src/main.c    ****     return false;
 3135              		.loc 2 751 12
 3136 09f4 B8000000 		movl	$0, %eax
 3136      00
 3137              	.L154:
 752:src/main.c    **** }
 3138              		.loc 2 752 1
 3139 09f9 C9       		leave
 3140              		.cfi_def_cfa 7, 8
 3141 09fa C3       		ret
 3142              		.cfi_endproc
 3143              	.LFE19:
 3145              		.section	.text.level2,"ax",@progbits
 3146              		.globl	level2
 3148              	level2:
 3149              	.LFB20:
 753:src/main.c    **** 
 754:src/main.c    **** char level2()
 755:src/main.c    **** {
 3150              		.loc 2 755 1
 3151              		.cfi_startproc
 3152 0000 F30F1EFA 		endbr64
 3153 0004 55       		pushq	%rbp
 3154              		.cfi_def_cfa_offset 16
 3155              		.cfi_offset 6, -16
 3156 0005 4889E5   		movq	%rsp, %rbp
 3157              		.cfi_def_cfa_register 6
 3158 0008 4881ECC0 		subq	$192, %rsp
 3158      000000
 756:src/main.c    ****     if( gameClock == 100 )
 3159              		.loc 2 756 19
 3160 000f 8B050000 		movl	gameClock(%rip), %eax
 3160      0000
 3161              		.loc 2 756 7
 3162 0015 83F864   		cmpl	$100, %eax
 3163 0018 7541     		jne	.L156
 3164              	.LBB49:
 757:src/main.c    ****     {
 758:src/main.c    ****         uPickup *pickup = createPickup( 280, 50, HEALTHPICKUP_WIDTH, HEALTHPICKUP_HEIGHT, HealthPic
 3165              		.loc 2 758 27
 3166 001a 4C8D0500 		leaq	HealthPickup(%rip), %r8
 3166      000000
 3167 0021 B90C0000 		movl	$12, %ecx
 3167      00
 3168 0026 BA0C0000 		movl	$12, %edx
 3168      00
 3169 002b BE320000 		movl	$50, %esi
 3169      00
 3170 0030 BF180100 		movl	$280, %edi
 3170      00
 3171 0035 E8000000 		call	createPickup
 3171      00
 3172 003a 48898568 		movq	%rax, -152(%rbp)
 3172      FFFFFF
 759:src/main.c    ****         pickup->type = Health;
 3173              		.loc 2 759 22
 3174 0041 488B8568 		movq	-152(%rbp), %rax
 3174      FFFFFF
 3175 0048 C7000000 		movl	$0, (%rax)
 3175      0000
 760:src/main.c    ****         pickup->entity.xVel = -1;
 3176              		.loc 2 760 29
 3177 004e 488B8568 		movq	-152(%rbp), %rax
 3177      FFFFFF
 3178 0055 66C74012 		movw	$-1, 18(%rax)
 3178      FFFF
 3179              	.L156:
 3180              	.LBE49:
 761:src/main.c    ****     }
 762:src/main.c    ****     if( gameClock == 200 )
 3181              		.loc 2 762 19
 3182 005b 8B050000 		movl	gameClock(%rip), %eax
 3182      0000
 3183              		.loc 2 762 7
 3184 0061 3DC80000 		cmpl	$200, %eax
 3184      00
 3185 0066 753E     		jne	.L157
 3186              	.LBB50:
 763:src/main.c    ****     {
 764:src/main.c    ****         uShip *ship = createEnemyShip( 280, 74, TURMISSCORV_WIDTH, TURMISSCORV_HEIGHT, TurMissCorv 
 3187              		.loc 2 764 23
 3188 0068 4C8D0500 		leaq	TurMissCorv(%rip), %r8
 3188      000000
 3189 006f B9120000 		movl	$18, %ecx
 3189      00
 3190 0074 BA190000 		movl	$25, %edx
 3190      00
 3191 0079 BE4A0000 		movl	$74, %esi
 3191      00
 3192 007e BF180100 		movl	$280, %edi
 3192      00
 3193 0083 E8000000 		call	createEnemyShip
 3193      00
 3194 0088 48898570 		movq	%rax, -144(%rbp)
 3194      FFFFFF
 765:src/main.c    ****         ship->health = 400;
 3195              		.loc 2 765 22
 3196 008f 488B8570 		movq	-144(%rbp), %rax
 3196      FFFFFF
 3197 0096 66C70090 		movw	$400, (%rax)
 3197      01
 766:src/main.c    ****         ship->ai = 5;
 3198              		.loc 2 766 18
 3199 009b 488B8570 		movq	-144(%rbp), %rax
 3199      FFFFFF
 3200 00a2 C6400205 		movb	$5, 2(%rax)
 3201              	.L157:
 3202              	.LBE50:
 767:src/main.c    ****     }
 768:src/main.c    ****     if( gameClock == 300 )
 3203              		.loc 2 768 19
 3204 00a6 8B050000 		movl	gameClock(%rip), %eax
 3204      0000
 3205              		.loc 2 768 7
 3206 00ac 3D2C0100 		cmpl	$300, %eax
 3206      00
 3207 00b1 0F85C800 		jne	.L158
 3207      0000
 3208              	.LBB51:
 769:src/main.c    ****     {
 770:src/main.c    ****         for( int i = 0; i < 5; i++ )
 3209              		.loc 2 770 18
 3210 00b7 C7854CFF 		movl	$0, -180(%rbp)
 3210      FFFF0000 
 3210      0000
 3211              		.loc 2 770 9
 3212 00c1 E9AC0000 		jmp	.L159
 3212      00
 3213              	.L160:
 3214              	.LBB52:
 771:src/main.c    ****         {
 772:src/main.c    ****             uShip *ship = createEnemyShip( 240, 72, TURINT_WIDTH, TURINT_HEIGHT, TurInt );
 3215              		.loc 2 772 27 discriminator 3
 3216 00c6 4C8D0500 		leaq	TurInt(%rip), %r8
 3216      000000
 3217 00cd B9090000 		movl	$9, %ecx
 3217      00
 3218 00d2 BA0F0000 		movl	$15, %edx
 3218      00
 3219 00d7 BE480000 		movl	$72, %esi
 3219      00
 3220 00dc BFF00000 		movl	$240, %edi
 3220      00
 3221 00e1 E8000000 		call	createEnemyShip
 3221      00
 3222 00e6 48898578 		movq	%rax, -136(%rbp)
 3222      FFFFFF
 773:src/main.c    ****             ship->health = 40;
 3223              		.loc 2 773 26 discriminator 3
 3224 00ed 488B8578 		movq	-136(%rbp), %rax
 3224      FFFFFF
 3225 00f4 66C70028 		movw	$40, (%rax)
 3225      00
 774:src/main.c    ****             ship->entity.x += i * 10;
 3226              		.loc 2 774 28 discriminator 3
 3227 00f9 488B8578 		movq	-136(%rbp), %rax
 3227      FFFFFF
 3228 0100 0FB7400A 		movzwl	10(%rax), %eax
 3229 0104 89C1     		movl	%eax, %ecx
 3230 0106 8B854CFF 		movl	-180(%rbp), %eax
 3230      FFFF
 3231 010c 89C2     		movl	%eax, %edx
 3232 010e 89D0     		movl	%edx, %eax
 3233 0110 C1E002   		sall	$2, %eax
 3234 0113 01D0     		addl	%edx, %eax
 3235 0115 01C0     		addl	%eax, %eax
 3236 0117 01C8     		addl	%ecx, %eax
 3237 0119 89C2     		movl	%eax, %edx
 3238 011b 488B8578 		movq	-136(%rbp), %rax
 3238      FFFFFF
 3239 0122 6689500A 		movw	%dx, 10(%rax)
 775:src/main.c    ****             ship->entity.y += i * 10;
 3240              		.loc 2 775 28 discriminator 3
 3241 0126 488B8578 		movq	-136(%rbp), %rax
 3241      FFFFFF
 3242 012d 0FB7400C 		movzwl	12(%rax), %eax
 3243 0131 89C1     		movl	%eax, %ecx
 3244 0133 8B854CFF 		movl	-180(%rbp), %eax
 3244      FFFF
 3245 0139 89C2     		movl	%eax, %edx
 3246 013b 89D0     		movl	%edx, %eax
 3247 013d C1E002   		sall	$2, %eax
 3248 0140 01D0     		addl	%edx, %eax
 3249 0142 01C0     		addl	%eax, %eax
 3250 0144 01C8     		addl	%ecx, %eax
 3251 0146 89C2     		movl	%eax, %edx
 3252 0148 488B8578 		movq	-136(%rbp), %rax
 3252      FFFFFF
 3253 014f 6689500C 		movw	%dx, 12(%rax)
 776:src/main.c    ****             ship->entity.xVel = -1;
 3254              		.loc 2 776 31 discriminator 3
 3255 0153 488B8578 		movq	-136(%rbp), %rax
 3255      FFFFFF
 3256 015a 66C74012 		movw	$-1, 18(%rax)
 3256      FFFF
 777:src/main.c    ****             ship->ai = 1;
 3257              		.loc 2 777 22 discriminator 3
 3258 0160 488B8578 		movq	-136(%rbp), %rax
 3258      FFFFFF
 3259 0167 C6400201 		movb	$1, 2(%rax)
 3260              	.LBE52:
 770:src/main.c    ****         {
 3261              		.loc 2 770 33 discriminator 3
 3262 016b 83854CFF 		addl	$1, -180(%rbp)
 3262      FFFF01
 3263              	.L159:
 770:src/main.c    ****         {
 3264              		.loc 2 770 9 discriminator 1
 3265 0172 83BD4CFF 		cmpl	$4, -180(%rbp)
 3265      FFFF04
 3266 0179 0F8E47FF 		jle	.L160
 3266      FFFF
 3267              	.L158:
 3268              	.LBE51:
 778:src/main.c    ****         }
 779:src/main.c    ****     }
 780:src/main.c    ****     if( gameClock == 500 )
 3269              		.loc 2 780 19
 3270 017f 8B050000 		movl	gameClock(%rip), %eax
 3270      0000
 3271              		.loc 2 780 7
 3272 0185 3DF40100 		cmpl	$500, %eax
 3272      00
 3273 018a 0F85B000 		jne	.L161
 3273      0000
 3274              	.LBB53:
 781:src/main.c    ****     {
 782:src/main.c    ****         for( int i = 0; i < 5; i++ )
 3275              		.loc 2 782 18
 3276 0190 C78550FF 		movl	$0, -176(%rbp)
 3276      FFFF0000 
 3276      0000
 3277              		.loc 2 782 9
 3278 019a E9940000 		jmp	.L162
 3278      00
 3279              	.L163:
 3280              	.LBB54:
 783:src/main.c    ****         {
 784:src/main.c    ****             uShip *ship = createEnemyShip( 240, 72, TURINT_WIDTH, TURINT_HEIGHT, TurInt );
 3281              		.loc 2 784 27 discriminator 3
 3282 019f 4C8D0500 		leaq	TurInt(%rip), %r8
 3282      000000
 3283 01a6 B9090000 		movl	$9, %ecx
 3283      00
 3284 01ab BA0F0000 		movl	$15, %edx
 3284      00
 3285 01b0 BE480000 		movl	$72, %esi
 3285      00
 3286 01b5 BFF00000 		movl	$240, %edi
 3286      00
 3287 01ba E8000000 		call	createEnemyShip
 3287      00
 3288 01bf 48894580 		movq	%rax, -128(%rbp)
 785:src/main.c    ****             ship->health = 40;
 3289              		.loc 2 785 26 discriminator 3
 3290 01c3 488B4580 		movq	-128(%rbp), %rax
 3291 01c7 66C70028 		movw	$40, (%rax)
 3291      00
 786:src/main.c    ****             ship->entity.x += i * 10;
 3292              		.loc 2 786 28 discriminator 3
 3293 01cc 488B4580 		movq	-128(%rbp), %rax
 3294 01d0 0FB7400A 		movzwl	10(%rax), %eax
 3295 01d4 89C1     		movl	%eax, %ecx
 3296 01d6 8B8550FF 		movl	-176(%rbp), %eax
 3296      FFFF
 3297 01dc 89C2     		movl	%eax, %edx
 3298 01de 89D0     		movl	%edx, %eax
 3299 01e0 C1E002   		sall	$2, %eax
 3300 01e3 01D0     		addl	%edx, %eax
 3301 01e5 01C0     		addl	%eax, %eax
 3302 01e7 01C8     		addl	%ecx, %eax
 3303 01e9 89C2     		movl	%eax, %edx
 3304 01eb 488B4580 		movq	-128(%rbp), %rax
 3305 01ef 6689500A 		movw	%dx, 10(%rax)
 787:src/main.c    ****             ship->entity.y += i * 10;
 3306              		.loc 2 787 28 discriminator 3
 3307 01f3 488B4580 		movq	-128(%rbp), %rax
 3308 01f7 0FB7400C 		movzwl	12(%rax), %eax
 3309 01fb 89C1     		movl	%eax, %ecx
 3310 01fd 8B8550FF 		movl	-176(%rbp), %eax
 3310      FFFF
 3311 0203 89C2     		movl	%eax, %edx
 3312 0205 89D0     		movl	%edx, %eax
 3313 0207 C1E002   		sall	$2, %eax
 3314 020a 01D0     		addl	%edx, %eax
 3315 020c 01C0     		addl	%eax, %eax
 3316 020e 01C8     		addl	%ecx, %eax
 3317 0210 89C2     		movl	%eax, %edx
 3318 0212 488B4580 		movq	-128(%rbp), %rax
 3319 0216 6689500C 		movw	%dx, 12(%rax)
 788:src/main.c    ****             ship->entity.xVel = -1;
 3320              		.loc 2 788 31 discriminator 3
 3321 021a 488B4580 		movq	-128(%rbp), %rax
 3322 021e 66C74012 		movw	$-1, 18(%rax)
 3322      FFFF
 789:src/main.c    ****             ship->ai = 1;
 3323              		.loc 2 789 22 discriminator 3
 3324 0224 488B4580 		movq	-128(%rbp), %rax
 3325 0228 C6400201 		movb	$1, 2(%rax)
 3326              	.LBE54:
 782:src/main.c    ****         {
 3327              		.loc 2 782 33 discriminator 3
 3328 022c 838550FF 		addl	$1, -176(%rbp)
 3328      FFFF01
 3329              	.L162:
 782:src/main.c    ****         {
 3330              		.loc 2 782 9 discriminator 1
 3331 0233 83BD50FF 		cmpl	$4, -176(%rbp)
 3331      FFFF04
 3332 023a 0F8E5FFF 		jle	.L163
 3332      FFFF
 3333              	.L161:
 3334              	.LBE53:
 790:src/main.c    ****         }
 791:src/main.c    ****     }
 792:src/main.c    ****     if( gameClock == 700 )
 3335              		.loc 2 792 19
 3336 0240 8B050000 		movl	gameClock(%rip), %eax
 3336      0000
 3337              		.loc 2 792 7
 3338 0246 3DBC0200 		cmpl	$700, %eax
 3338      00
 3339 024b 7535     		jne	.L164
 3340              	.LBB55:
 793:src/main.c    ****     {
 794:src/main.c    ****         uShip *ship = createEnemyShip( 280, 74, TURMISSCORV_WIDTH, TURMISSCORV_HEIGHT, TurMissCorv 
 3341              		.loc 2 794 23
 3342 024d 4C8D0500 		leaq	TurMissCorv(%rip), %r8
 3342      000000
 3343 0254 B9120000 		movl	$18, %ecx
 3343      00
 3344 0259 BA190000 		movl	$25, %edx
 3344      00
 3345 025e BE4A0000 		movl	$74, %esi
 3345      00
 3346 0263 BF180100 		movl	$280, %edi
 3346      00
 3347 0268 E8000000 		call	createEnemyShip
 3347      00
 3348 026d 48894588 		movq	%rax, -120(%rbp)
 795:src/main.c    ****         ship->health = 400;
 3349              		.loc 2 795 22
 3350 0271 488B4588 		movq	-120(%rbp), %rax
 3351 0275 66C70090 		movw	$400, (%rax)
 3351      01
 796:src/main.c    ****         ship->ai = 5;
 3352              		.loc 2 796 18
 3353 027a 488B4588 		movq	-120(%rbp), %rax
 3354 027e C6400205 		movb	$5, 2(%rax)
 3355              	.L164:
 3356              	.LBE55:
 797:src/main.c    ****     }
 798:src/main.c    ****     if( gameClock == 900 )
 3357              		.loc 2 798 19
 3358 0282 8B050000 		movl	gameClock(%rip), %eax
 3358      0000
 3359              		.loc 2 798 7
 3360 0288 3D840300 		cmpl	$900, %eax
 3360      00
 3361 028d 7538     		jne	.L165
 3362              	.LBB56:
 799:src/main.c    ****     {
 800:src/main.c    ****         uPickup *pickup = createPickup( 280, 72, SHOTGUNPICKUP_WIDTH, SHOTGUNPICKUP_HEIGHT, Shotgun
 3363              		.loc 2 800 27
 3364 028f 4C8D0500 		leaq	ShotgunPickup(%rip), %r8
 3364      000000
 3365 0296 B90C0000 		movl	$12, %ecx
 3365      00
 3366 029b BA0C0000 		movl	$12, %edx
 3366      00
 3367 02a0 BE480000 		movl	$72, %esi
 3367      00
 3368 02a5 BF180100 		movl	$280, %edi
 3368      00
 3369 02aa E8000000 		call	createPickup
 3369      00
 3370 02af 48894590 		movq	%rax, -112(%rbp)
 801:src/main.c    ****         pickup->type = Shotgun;
 3371              		.loc 2 801 22
 3372 02b3 488B4590 		movq	-112(%rbp), %rax
 3373 02b7 C7000200 		movl	$2, (%rax)
 3373      0000
 802:src/main.c    ****         pickup->entity.xVel = -1;
 3374              		.loc 2 802 29
 3375 02bd 488B4590 		movq	-112(%rbp), %rax
 3376 02c1 66C74012 		movw	$-1, 18(%rax)
 3376      FFFF
 3377              	.L165:
 3378              	.LBE56:
 803:src/main.c    ****     }
 804:src/main.c    ****     if( gameClock == 1000 )
 3379              		.loc 2 804 19
 3380 02c7 8B050000 		movl	gameClock(%rip), %eax
 3380      0000
 3381              		.loc 2 804 7
 3382 02cd 3DE80300 		cmpl	$1000, %eax
 3382      00
 3383 02d2 0F85B900 		jne	.L166
 3383      0000
 3384              	.LBB57:
 805:src/main.c    ****     {
 806:src/main.c    ****         for( int i = 0; i < 3; i++ )
 3385              		.loc 2 806 18
 3386 02d8 C78554FF 		movl	$0, -172(%rbp)
 3386      FFFF0000 
 3386      0000
 3387              		.loc 2 806 9
 3388 02e2 E99D0000 		jmp	.L167
 3388      00
 3389              	.L168:
 3390              	.LBB58:
 807:src/main.c    ****         {
 808:src/main.c    ****             uShip *ship = createEnemyShip( 250, 20, TURINT_WIDTH, TURINT_HEIGHT, TurInt );
 3391              		.loc 2 808 27 discriminator 3
 3392 02e7 4C8D0500 		leaq	TurInt(%rip), %r8
 3392      000000
 3393 02ee B9090000 		movl	$9, %ecx
 3393      00
 3394 02f3 BA0F0000 		movl	$15, %edx
 3394      00
 3395 02f8 BE140000 		movl	$20, %esi
 3395      00
 3396 02fd BFFA0000 		movl	$250, %edi
 3396      00
 3397 0302 E8000000 		call	createEnemyShip
 3397      00
 3398 0307 48894598 		movq	%rax, -104(%rbp)
 809:src/main.c    ****             ship->health = 40;
 3399              		.loc 2 809 26 discriminator 3
 3400 030b 488B4598 		movq	-104(%rbp), %rax
 3401 030f 66C70028 		movw	$40, (%rax)
 3401      00
 810:src/main.c    ****             ship->entity.x += i * 10;
 3402              		.loc 2 810 28 discriminator 3
 3403 0314 488B4598 		movq	-104(%rbp), %rax
 3404 0318 0FB7400A 		movzwl	10(%rax), %eax
 3405 031c 89C1     		movl	%eax, %ecx
 3406 031e 8B8554FF 		movl	-172(%rbp), %eax
 3406      FFFF
 3407 0324 89C2     		movl	%eax, %edx
 3408 0326 89D0     		movl	%edx, %eax
 3409 0328 C1E002   		sall	$2, %eax
 3410 032b 01D0     		addl	%edx, %eax
 3411 032d 01C0     		addl	%eax, %eax
 3412 032f 01C8     		addl	%ecx, %eax
 3413 0331 89C2     		movl	%eax, %edx
 3414 0333 488B4598 		movq	-104(%rbp), %rax
 3415 0337 6689500A 		movw	%dx, 10(%rax)
 811:src/main.c    ****             ship->entity.y += i * 50;
 3416              		.loc 2 811 28 discriminator 3
 3417 033b 488B4598 		movq	-104(%rbp), %rax
 3418 033f 0FB7400C 		movzwl	12(%rax), %eax
 3419 0343 89C1     		movl	%eax, %ecx
 3420 0345 8B8554FF 		movl	-172(%rbp), %eax
 3420      FFFF
 3421 034b 89C2     		movl	%eax, %edx
 3422 034d 89D0     		movl	%edx, %eax
 3423 034f C1E002   		sall	$2, %eax
 3424 0352 01D0     		addl	%edx, %eax
 3425 0354 8D148500 		leal	0(,%rax,4), %edx
 3425      000000
 3426 035b 01D0     		addl	%edx, %eax
 3427 035d 01C0     		addl	%eax, %eax
 3428 035f 01C8     		addl	%ecx, %eax
 3429 0361 89C2     		movl	%eax, %edx
 3430 0363 488B4598 		movq	-104(%rbp), %rax
 3431 0367 6689500C 		movw	%dx, 12(%rax)
 812:src/main.c    ****             ship->entity.xVel = -1;
 3432              		.loc 2 812 31 discriminator 3
 3433 036b 488B4598 		movq	-104(%rbp), %rax
 3434 036f 66C74012 		movw	$-1, 18(%rax)
 3434      FFFF
 813:src/main.c    ****             ship->ai = 6;
 3435              		.loc 2 813 22 discriminator 3
 3436 0375 488B4598 		movq	-104(%rbp), %rax
 3437 0379 C6400206 		movb	$6, 2(%rax)
 3438              	.LBE58:
 806:src/main.c    ****         {
 3439              		.loc 2 806 33 discriminator 3
 3440 037d 838554FF 		addl	$1, -172(%rbp)
 3440      FFFF01
 3441              	.L167:
 806:src/main.c    ****         {
 3442              		.loc 2 806 9 discriminator 1
 3443 0384 83BD54FF 		cmpl	$2, -172(%rbp)
 3443      FFFF02
 3444 038b 0F8E56FF 		jle	.L168
 3444      FFFF
 3445              	.L166:
 3446              	.LBE57:
 814:src/main.c    ****         }
 815:src/main.c    ****     }
 816:src/main.c    ****     if( gameClock == 1100 )
 3447              		.loc 2 816 19
 3448 0391 8B050000 		movl	gameClock(%rip), %eax
 3448      0000
 3449              		.loc 2 816 7
 3450 0397 3D4C0400 		cmpl	$1100, %eax
 3450      00
 3451 039c 7538     		jne	.L169
 3452              	.LBB59:
 817:src/main.c    ****     {
 818:src/main.c    ****         uPickup *pickup = createPickup( 280, 120, HEALTHPICKUP_WIDTH, HEALTHPICKUP_HEIGHT, RocketPi
 3453              		.loc 2 818 27
 3454 039e 4C8D0500 		leaq	RocketPickup(%rip), %r8
 3454      000000
 3455 03a5 B90C0000 		movl	$12, %ecx
 3455      00
 3456 03aa BA0C0000 		movl	$12, %edx
 3456      00
 3457 03af BE780000 		movl	$120, %esi
 3457      00
 3458 03b4 BF180100 		movl	$280, %edi
 3458      00
 3459 03b9 E8000000 		call	createPickup
 3459      00
 3460 03be 488945A0 		movq	%rax, -96(%rbp)
 819:src/main.c    ****         pickup->type = Ammo;
 3461              		.loc 2 819 22
 3462 03c2 488B45A0 		movq	-96(%rbp), %rax
 3463 03c6 C7000100 		movl	$1, (%rax)
 3463      0000
 820:src/main.c    ****         pickup->entity.xVel = -1;
 3464              		.loc 2 820 29
 3465 03cc 488B45A0 		movq	-96(%rbp), %rax
 3466 03d0 66C74012 		movw	$-1, 18(%rax)
 3466      FFFF
 3467              	.L169:
 3468              	.LBE59:
 821:src/main.c    ****     }
 822:src/main.c    ****     if( gameClock == 1300 )
 3469              		.loc 2 822 19
 3470 03d6 8B050000 		movl	gameClock(%rip), %eax
 3470      0000
 3471              		.loc 2 822 7
 3472 03dc 3D140500 		cmpl	$1300, %eax
 3472      00
 3473 03e1 0F85B000 		jne	.L170
 3473      0000
 3474              	.LBB60:
 823:src/main.c    ****     {
 824:src/main.c    ****         for( int i = 0; i < 7; i++ )
 3475              		.loc 2 824 18
 3476 03e7 C78558FF 		movl	$0, -168(%rbp)
 3476      FFFF0000 
 3476      0000
 3477              		.loc 2 824 9
 3478 03f1 E9940000 		jmp	.L171
 3478      00
 3479              	.L172:
 3480              	.LBB61:
 825:src/main.c    ****         {
 826:src/main.c    ****             uShip *ship = createEnemyShip( 220, 30, TURINT_WIDTH, TURINT_HEIGHT, TurInt );
 3481              		.loc 2 826 27 discriminator 3
 3482 03f6 4C8D0500 		leaq	TurInt(%rip), %r8
 3482      000000
 3483 03fd B9090000 		movl	$9, %ecx
 3483      00
 3484 0402 BA0F0000 		movl	$15, %edx
 3484      00
 3485 0407 BE1E0000 		movl	$30, %esi
 3485      00
 3486 040c BFDC0000 		movl	$220, %edi
 3486      00
 3487 0411 E8000000 		call	createEnemyShip
 3487      00
 3488 0416 488945A8 		movq	%rax, -88(%rbp)
 827:src/main.c    ****             ship->health = 40;
 3489              		.loc 2 827 26 discriminator 3
 3490 041a 488B45A8 		movq	-88(%rbp), %rax
 3491 041e 66C70028 		movw	$40, (%rax)
 3491      00
 828:src/main.c    ****             ship->entity.x += i * 10;
 3492              		.loc 2 828 28 discriminator 3
 3493 0423 488B45A8 		movq	-88(%rbp), %rax
 3494 0427 0FB7400A 		movzwl	10(%rax), %eax
 3495 042b 89C1     		movl	%eax, %ecx
 3496 042d 8B8558FF 		movl	-168(%rbp), %eax
 3496      FFFF
 3497 0433 89C2     		movl	%eax, %edx
 3498 0435 89D0     		movl	%edx, %eax
 3499 0437 C1E002   		sall	$2, %eax
 3500 043a 01D0     		addl	%edx, %eax
 3501 043c 01C0     		addl	%eax, %eax
 3502 043e 01C8     		addl	%ecx, %eax
 3503 0440 89C2     		movl	%eax, %edx
 3504 0442 488B45A8 		movq	-88(%rbp), %rax
 3505 0446 6689500A 		movw	%dx, 10(%rax)
 829:src/main.c    ****             ship->entity.y += i * 10;
 3506              		.loc 2 829 28 discriminator 3
 3507 044a 488B45A8 		movq	-88(%rbp), %rax
 3508 044e 0FB7400C 		movzwl	12(%rax), %eax
 3509 0452 89C1     		movl	%eax, %ecx
 3510 0454 8B8558FF 		movl	-168(%rbp), %eax
 3510      FFFF
 3511 045a 89C2     		movl	%eax, %edx
 3512 045c 89D0     		movl	%edx, %eax
 3513 045e C1E002   		sall	$2, %eax
 3514 0461 01D0     		addl	%edx, %eax
 3515 0463 01C0     		addl	%eax, %eax
 3516 0465 01C8     		addl	%ecx, %eax
 3517 0467 89C2     		movl	%eax, %edx
 3518 0469 488B45A8 		movq	-88(%rbp), %rax
 3519 046d 6689500C 		movw	%dx, 12(%rax)
 830:src/main.c    ****             ship->entity.xVel = -1;
 3520              		.loc 2 830 31 discriminator 3
 3521 0471 488B45A8 		movq	-88(%rbp), %rax
 3522 0475 66C74012 		movw	$-1, 18(%rax)
 3522      FFFF
 831:src/main.c    ****             ship->ai = 1;
 3523              		.loc 2 831 22 discriminator 3
 3524 047b 488B45A8 		movq	-88(%rbp), %rax
 3525 047f C6400201 		movb	$1, 2(%rax)
 3526              	.LBE61:
 824:src/main.c    ****         {
 3527              		.loc 2 824 33 discriminator 3
 3528 0483 838558FF 		addl	$1, -168(%rbp)
 3528      FFFF01
 3529              	.L171:
 824:src/main.c    ****         {
 3530              		.loc 2 824 9 discriminator 1
 3531 048a 83BD58FF 		cmpl	$6, -168(%rbp)
 3531      FFFF06
 3532 0491 0F8E5FFF 		jle	.L172
 3532      FFFF
 3533              	.L170:
 3534              	.LBE60:
 832:src/main.c    ****         }
 833:src/main.c    ****     }
 834:src/main.c    ****     if( gameClock == 1350 )
 3535              		.loc 2 834 19
 3536 0497 8B050000 		movl	gameClock(%rip), %eax
 3536      0000
 3537              		.loc 2 834 7
 3538 049d 3D460500 		cmpl	$1350, %eax
 3538      00
 3539 04a2 7538     		jne	.L173
 3540              	.LBB62:
 835:src/main.c    ****     {
 836:src/main.c    ****         uPickup *pickup = createPickup( 280, 130, HEALTHPICKUP_WIDTH, HEALTHPICKUP_HEIGHT, HealthPi
 3541              		.loc 2 836 27
 3542 04a4 4C8D0500 		leaq	HealthPickup(%rip), %r8
 3542      000000
 3543 04ab B90C0000 		movl	$12, %ecx
 3543      00
 3544 04b0 BA0C0000 		movl	$12, %edx
 3544      00
 3545 04b5 BE820000 		movl	$130, %esi
 3545      00
 3546 04ba BF180100 		movl	$280, %edi
 3546      00
 3547 04bf E8000000 		call	createPickup
 3547      00
 3548 04c4 488945B0 		movq	%rax, -80(%rbp)
 837:src/main.c    ****         pickup->type = Health;
 3549              		.loc 2 837 22
 3550 04c8 488B45B0 		movq	-80(%rbp), %rax
 3551 04cc C7000000 		movl	$0, (%rax)
 3551      0000
 838:src/main.c    ****         pickup->entity.xVel = -1;
 3552              		.loc 2 838 29
 3553 04d2 488B45B0 		movq	-80(%rbp), %rax
 3554 04d6 66C74012 		movw	$-1, 18(%rax)
 3554      FFFF
 3555              	.L173:
 3556              	.LBE62:
 839:src/main.c    ****     }
 840:src/main.c    ****     if( gameClock == 1400 )
 3557              		.loc 2 840 19
 3558 04dc 8B050000 		movl	gameClock(%rip), %eax
 3558      0000
 3559              		.loc 2 840 7
 3560 04e2 3D780500 		cmpl	$1400, %eax
 3560      00
 3561 04e7 7535     		jne	.L174
 3562              	.LBB63:
 841:src/main.c    ****     {
 842:src/main.c    ****         uShip *ship = createEnemyShip( 160, -20, TURMISSCORV_WIDTH, TURMISSCORV_HEIGHT, TurMissCorv
 3563              		.loc 2 842 23
 3564 04e9 4C8D0500 		leaq	TurMissCorv(%rip), %r8
 3564      000000
 3565 04f0 B9120000 		movl	$18, %ecx
 3565      00
 3566 04f5 BA190000 		movl	$25, %edx
 3566      00
 3567 04fa BEECFFFF 		movl	$-20, %esi
 3567      FF
 3568 04ff BFA00000 		movl	$160, %edi
 3568      00
 3569 0504 E8000000 		call	createEnemyShip
 3569      00
 3570 0509 488945B8 		movq	%rax, -72(%rbp)
 843:src/main.c    ****         ship->health = 400;
 3571              		.loc 2 843 22
 3572 050d 488B45B8 		movq	-72(%rbp), %rax
 3573 0511 66C70090 		movw	$400, (%rax)
 3573      01
 844:src/main.c    ****         ship->ai = 5;
 3574              		.loc 2 844 18
 3575 0516 488B45B8 		movq	-72(%rbp), %rax
 3576 051a C6400205 		movb	$5, 2(%rax)
 3577              	.L174:
 3578              	.LBE63:
 845:src/main.c    ****     }
 846:src/main.c    ****     if( gameClock == 1500 )
 3579              		.loc 2 846 19
 3580 051e 8B050000 		movl	gameClock(%rip), %eax
 3580      0000
 3581              		.loc 2 846 7
 3582 0524 3DDC0500 		cmpl	$1500, %eax
 3582      00
 3583 0529 7538     		jne	.L175
 3584              	.LBB64:
 847:src/main.c    ****     {
 848:src/main.c    ****         uPickup *pickup = createPickup( 280, 10, HEALTHPICKUP_WIDTH, HEALTHPICKUP_HEIGHT, RocketPic
 3585              		.loc 2 848 27
 3586 052b 4C8D0500 		leaq	RocketPickup(%rip), %r8
 3586      000000
 3587 0532 B90C0000 		movl	$12, %ecx
 3587      00
 3588 0537 BA0C0000 		movl	$12, %edx
 3588      00
 3589 053c BE0A0000 		movl	$10, %esi
 3589      00
 3590 0541 BF180100 		movl	$280, %edi
 3590      00
 3591 0546 E8000000 		call	createPickup
 3591      00
 3592 054b 488945C0 		movq	%rax, -64(%rbp)
 849:src/main.c    ****         pickup->type = Ammo;
 3593              		.loc 2 849 22
 3594 054f 488B45C0 		movq	-64(%rbp), %rax
 3595 0553 C7000100 		movl	$1, (%rax)
 3595      0000
 850:src/main.c    ****         pickup->entity.xVel = -1;
 3596              		.loc 2 850 29
 3597 0559 488B45C0 		movq	-64(%rbp), %rax
 3598 055d 66C74012 		movw	$-1, 18(%rax)
 3598      FFFF
 3599              	.L175:
 3600              	.LBE64:
 851:src/main.c    ****     }
 852:src/main.c    ****     if( gameClock == 1600 )
 3601              		.loc 2 852 19
 3602 0563 8B050000 		movl	gameClock(%rip), %eax
 3602      0000
 3603              		.loc 2 852 7
 3604 0569 3D400600 		cmpl	$1600, %eax
 3604      00
 3605 056e 7535     		jne	.L176
 3606              	.LBB65:
 853:src/main.c    ****     {
 854:src/main.c    ****         uShip *ship = createEnemyShip( 280, 0, TURMISSCORV_WIDTH, TURMISSCORV_HEIGHT, TurMissCorv )
 3607              		.loc 2 854 23
 3608 0570 4C8D0500 		leaq	TurMissCorv(%rip), %r8
 3608      000000
 3609 0577 B9120000 		movl	$18, %ecx
 3609      00
 3610 057c BA190000 		movl	$25, %edx
 3610      00
 3611 0581 BE000000 		movl	$0, %esi
 3611      00
 3612 0586 BF180100 		movl	$280, %edi
 3612      00
 3613 058b E8000000 		call	createEnemyShip
 3613      00
 3614 0590 488945C8 		movq	%rax, -56(%rbp)
 855:src/main.c    ****         ship->health = 400;
 3615              		.loc 2 855 22
 3616 0594 488B45C8 		movq	-56(%rbp), %rax
 3617 0598 66C70090 		movw	$400, (%rax)
 3617      01
 856:src/main.c    ****         ship->ai = 5;
 3618              		.loc 2 856 18
 3619 059d 488B45C8 		movq	-56(%rbp), %rax
 3620 05a1 C6400205 		movb	$5, 2(%rax)
 3621              	.L176:
 3622              	.LBE65:
 857:src/main.c    ****     }
 858:src/main.c    ****     if( gameClock == 1800 )
 3623              		.loc 2 858 19
 3624 05a5 8B050000 		movl	gameClock(%rip), %eax
 3624      0000
 3625              		.loc 2 858 7
 3626 05ab 3D080700 		cmpl	$1800, %eax
 3626      00
 3627 05b0 0F85B000 		jne	.L177
 3627      0000
 3628              	.LBB66:
 859:src/main.c    ****     {
 860:src/main.c    ****         for( int i = 0; i < 7; i++ )
 3629              		.loc 2 860 18
 3630 05b6 C7855CFF 		movl	$0, -164(%rbp)
 3630      FFFF0000 
 3630      0000
 3631              		.loc 2 860 9
 3632 05c0 E9940000 		jmp	.L178
 3632      00
 3633              	.L179:
 3634              	.LBB67:
 861:src/main.c    ****         {
 862:src/main.c    ****             uShip *ship = createEnemyShip( 220, 30, TURINT_WIDTH, TURINT_HEIGHT, TurInt );
 3635              		.loc 2 862 27 discriminator 3
 3636 05c5 4C8D0500 		leaq	TurInt(%rip), %r8
 3636      000000
 3637 05cc B9090000 		movl	$9, %ecx
 3637      00
 3638 05d1 BA0F0000 		movl	$15, %edx
 3638      00
 3639 05d6 BE1E0000 		movl	$30, %esi
 3639      00
 3640 05db BFDC0000 		movl	$220, %edi
 3640      00
 3641 05e0 E8000000 		call	createEnemyShip
 3641      00
 3642 05e5 488945D0 		movq	%rax, -48(%rbp)
 863:src/main.c    ****             ship->health = 40;
 3643              		.loc 2 863 26 discriminator 3
 3644 05e9 488B45D0 		movq	-48(%rbp), %rax
 3645 05ed 66C70028 		movw	$40, (%rax)
 3645      00
 864:src/main.c    ****             ship->entity.x += i * 10;
 3646              		.loc 2 864 28 discriminator 3
 3647 05f2 488B45D0 		movq	-48(%rbp), %rax
 3648 05f6 0FB7400A 		movzwl	10(%rax), %eax
 3649 05fa 89C1     		movl	%eax, %ecx
 3650 05fc 8B855CFF 		movl	-164(%rbp), %eax
 3650      FFFF
 3651 0602 89C2     		movl	%eax, %edx
 3652 0604 89D0     		movl	%edx, %eax
 3653 0606 C1E002   		sall	$2, %eax
 3654 0609 01D0     		addl	%edx, %eax
 3655 060b 01C0     		addl	%eax, %eax
 3656 060d 01C8     		addl	%ecx, %eax
 3657 060f 89C2     		movl	%eax, %edx
 3658 0611 488B45D0 		movq	-48(%rbp), %rax
 3659 0615 6689500A 		movw	%dx, 10(%rax)
 865:src/main.c    ****             ship->entity.y += i * 10;
 3660              		.loc 2 865 28 discriminator 3
 3661 0619 488B45D0 		movq	-48(%rbp), %rax
 3662 061d 0FB7400C 		movzwl	12(%rax), %eax
 3663 0621 89C1     		movl	%eax, %ecx
 3664 0623 8B855CFF 		movl	-164(%rbp), %eax
 3664      FFFF
 3665 0629 89C2     		movl	%eax, %edx
 3666 062b 89D0     		movl	%edx, %eax
 3667 062d C1E002   		sall	$2, %eax
 3668 0630 01D0     		addl	%edx, %eax
 3669 0632 01C0     		addl	%eax, %eax
 3670 0634 01C8     		addl	%ecx, %eax
 3671 0636 89C2     		movl	%eax, %edx
 3672 0638 488B45D0 		movq	-48(%rbp), %rax
 3673 063c 6689500C 		movw	%dx, 12(%rax)
 866:src/main.c    ****             ship->entity.xVel = -1;
 3674              		.loc 2 866 31 discriminator 3
 3675 0640 488B45D0 		movq	-48(%rbp), %rax
 3676 0644 66C74012 		movw	$-1, 18(%rax)
 3676      FFFF
 867:src/main.c    ****             ship->ai = 1;
 3677              		.loc 2 867 22 discriminator 3
 3678 064a 488B45D0 		movq	-48(%rbp), %rax
 3679 064e C6400201 		movb	$1, 2(%rax)
 3680              	.LBE67:
 860:src/main.c    ****         {
 3681              		.loc 2 860 33 discriminator 3
 3682 0652 83855CFF 		addl	$1, -164(%rbp)
 3682      FFFF01
 3683              	.L178:
 860:src/main.c    ****         {
 3684              		.loc 2 860 9 discriminator 1
 3685 0659 83BD5CFF 		cmpl	$6, -164(%rbp)
 3685      FFFF06
 3686 0660 0F8E5FFF 		jle	.L179
 3686      FFFF
 3687              	.L177:
 3688              	.LBE66:
 868:src/main.c    ****         }
 869:src/main.c    ****     }
 870:src/main.c    ****     if( gameClock == 2100 )
 3689              		.loc 2 870 19
 3690 0666 8B050000 		movl	gameClock(%rip), %eax
 3690      0000
 3691              		.loc 2 870 7
 3692 066c 3D340800 		cmpl	$2100, %eax
 3692      00
 3693 0671 0F85B900 		jne	.L180
 3693      0000
 3694              	.LBB68:
 871:src/main.c    ****     {
 872:src/main.c    ****         for( int i = 0; i < 3; i++ )
 3695              		.loc 2 872 18
 3696 0677 C78560FF 		movl	$0, -160(%rbp)
 3696      FFFF0000 
 3696      0000
 3697              		.loc 2 872 9
 3698 0681 E99D0000 		jmp	.L181
 3698      00
 3699              	.L182:
 3700              	.LBB69:
 873:src/main.c    ****         {
 874:src/main.c    ****             uShip *ship = createEnemyShip( 250, 20, TURINT_WIDTH, TURINT_HEIGHT, TurInt );
 3701              		.loc 2 874 27 discriminator 3
 3702 0686 4C8D0500 		leaq	TurInt(%rip), %r8
 3702      000000
 3703 068d B9090000 		movl	$9, %ecx
 3703      00
 3704 0692 BA0F0000 		movl	$15, %edx
 3704      00
 3705 0697 BE140000 		movl	$20, %esi
 3705      00
 3706 069c BFFA0000 		movl	$250, %edi
 3706      00
 3707 06a1 E8000000 		call	createEnemyShip
 3707      00
 3708 06a6 488945D8 		movq	%rax, -40(%rbp)
 875:src/main.c    ****             ship->health = 40;
 3709              		.loc 2 875 26 discriminator 3
 3710 06aa 488B45D8 		movq	-40(%rbp), %rax
 3711 06ae 66C70028 		movw	$40, (%rax)
 3711      00
 876:src/main.c    ****             ship->entity.x += i * 10;
 3712              		.loc 2 876 28 discriminator 3
 3713 06b3 488B45D8 		movq	-40(%rbp), %rax
 3714 06b7 0FB7400A 		movzwl	10(%rax), %eax
 3715 06bb 89C1     		movl	%eax, %ecx
 3716 06bd 8B8560FF 		movl	-160(%rbp), %eax
 3716      FFFF
 3717 06c3 89C2     		movl	%eax, %edx
 3718 06c5 89D0     		movl	%edx, %eax
 3719 06c7 C1E002   		sall	$2, %eax
 3720 06ca 01D0     		addl	%edx, %eax
 3721 06cc 01C0     		addl	%eax, %eax
 3722 06ce 01C8     		addl	%ecx, %eax
 3723 06d0 89C2     		movl	%eax, %edx
 3724 06d2 488B45D8 		movq	-40(%rbp), %rax
 3725 06d6 6689500A 		movw	%dx, 10(%rax)
 877:src/main.c    ****             ship->entity.y += i * 50;
 3726              		.loc 2 877 28 discriminator 3
 3727 06da 488B45D8 		movq	-40(%rbp), %rax
 3728 06de 0FB7400C 		movzwl	12(%rax), %eax
 3729 06e2 89C1     		movl	%eax, %ecx
 3730 06e4 8B8560FF 		movl	-160(%rbp), %eax
 3730      FFFF
 3731 06ea 89C2     		movl	%eax, %edx
 3732 06ec 89D0     		movl	%edx, %eax
 3733 06ee C1E002   		sall	$2, %eax
 3734 06f1 01D0     		addl	%edx, %eax
 3735 06f3 8D148500 		leal	0(,%rax,4), %edx
 3735      000000
 3736 06fa 01D0     		addl	%edx, %eax
 3737 06fc 01C0     		addl	%eax, %eax
 3738 06fe 01C8     		addl	%ecx, %eax
 3739 0700 89C2     		movl	%eax, %edx
 3740 0702 488B45D8 		movq	-40(%rbp), %rax
 3741 0706 6689500C 		movw	%dx, 12(%rax)
 878:src/main.c    ****             ship->entity.xVel = -1;
 3742              		.loc 2 878 31 discriminator 3
 3743 070a 488B45D8 		movq	-40(%rbp), %rax
 3744 070e 66C74012 		movw	$-1, 18(%rax)
 3744      FFFF
 879:src/main.c    ****             ship->ai = 3;
 3745              		.loc 2 879 22 discriminator 3
 3746 0714 488B45D8 		movq	-40(%rbp), %rax
 3747 0718 C6400203 		movb	$3, 2(%rax)
 3748              	.LBE69:
 872:src/main.c    ****         {
 3749              		.loc 2 872 33 discriminator 3
 3750 071c 838560FF 		addl	$1, -160(%rbp)
 3750      FFFF01
 3751              	.L181:
 872:src/main.c    ****         {
 3752              		.loc 2 872 9 discriminator 1
 3753 0723 83BD60FF 		cmpl	$2, -160(%rbp)
 3753      FFFF02
 3754 072a 0F8E56FF 		jle	.L182
 3754      FFFF
 3755              	.L180:
 3756              	.LBE68:
 880:src/main.c    ****         }
 881:src/main.c    ****     }
 882:src/main.c    ****     if( gameClock == 2300 )
 3757              		.loc 2 882 19
 3758 0730 8B050000 		movl	gameClock(%rip), %eax
 3758      0000
 3759              		.loc 2 882 7
 3760 0736 3DFC0800 		cmpl	$2300, %eax
 3760      00
 3761 073b 7535     		jne	.L183
 3762              	.LBB70:
 883:src/main.c    ****     {
 884:src/main.c    ****         uShip *ship = createEnemyShip( 280, 72, TURCORV_WIDTH, TURCORV_HEIGHT, TurCorv );
 3763              		.loc 2 884 23
 3764 073d 4C8D0500 		leaq	TurCorv(%rip), %r8
 3764      000000
 3765 0744 B90C0000 		movl	$12, %ecx
 3765      00
 3766 0749 BA190000 		movl	$25, %edx
 3766      00
 3767 074e BE480000 		movl	$72, %esi
 3767      00
 3768 0753 BF180100 		movl	$280, %edi
 3768      00
 3769 0758 E8000000 		call	createEnemyShip
 3769      00
 3770 075d 488945E0 		movq	%rax, -32(%rbp)
 885:src/main.c    ****         ship->health = 300;
 3771              		.loc 2 885 22
 3772 0761 488B45E0 		movq	-32(%rbp), %rax
 3773 0765 66C7002C 		movw	$300, (%rax)
 3773      01
 886:src/main.c    ****         ship->ai = 6;
 3774              		.loc 2 886 18
 3775 076a 488B45E0 		movq	-32(%rbp), %rax
 3776 076e C6400206 		movb	$6, 2(%rax)
 3777              	.L183:
 3778              	.LBE70:
 887:src/main.c    ****     }
 888:src/main.c    ****     if( gameClock == 2500 )
 3779              		.loc 2 888 19
 3780 0772 8B050000 		movl	gameClock(%rip), %eax
 3780      0000
 3781              		.loc 2 888 7
 3782 0778 3DC40900 		cmpl	$2500, %eax
 3782      00
 3783 077d 0F85B000 		jne	.L184
 3783      0000
 3784              	.LBB71:
 889:src/main.c    ****     {
 890:src/main.c    ****         for( int i = 0; i < 7; i++ )
 3785              		.loc 2 890 18
 3786 0783 C78564FF 		movl	$0, -156(%rbp)
 3786      FFFF0000 
 3786      0000
 3787              		.loc 2 890 9
 3788 078d E9940000 		jmp	.L185
 3788      00
 3789              	.L186:
 3790              	.LBB72:
 891:src/main.c    ****         {
 892:src/main.c    ****             uShip *ship = createEnemyShip( 220, 30, TURINT_WIDTH, TURINT_HEIGHT, TurInt );
 3791              		.loc 2 892 27 discriminator 3
 3792 0792 4C8D0500 		leaq	TurInt(%rip), %r8
 3792      000000
 3793 0799 B9090000 		movl	$9, %ecx
 3793      00
 3794 079e BA0F0000 		movl	$15, %edx
 3794      00
 3795 07a3 BE1E0000 		movl	$30, %esi
 3795      00
 3796 07a8 BFDC0000 		movl	$220, %edi
 3796      00
 3797 07ad E8000000 		call	createEnemyShip
 3797      00
 3798 07b2 488945E8 		movq	%rax, -24(%rbp)
 893:src/main.c    ****             ship->health = 40;
 3799              		.loc 2 893 26 discriminator 3
 3800 07b6 488B45E8 		movq	-24(%rbp), %rax
 3801 07ba 66C70028 		movw	$40, (%rax)
 3801      00
 894:src/main.c    ****             ship->entity.x += i * 10;
 3802              		.loc 2 894 28 discriminator 3
 3803 07bf 488B45E8 		movq	-24(%rbp), %rax
 3804 07c3 0FB7400A 		movzwl	10(%rax), %eax
 3805 07c7 89C1     		movl	%eax, %ecx
 3806 07c9 8B8564FF 		movl	-156(%rbp), %eax
 3806      FFFF
 3807 07cf 89C2     		movl	%eax, %edx
 3808 07d1 89D0     		movl	%edx, %eax
 3809 07d3 C1E002   		sall	$2, %eax
 3810 07d6 01D0     		addl	%edx, %eax
 3811 07d8 01C0     		addl	%eax, %eax
 3812 07da 01C8     		addl	%ecx, %eax
 3813 07dc 89C2     		movl	%eax, %edx
 3814 07de 488B45E8 		movq	-24(%rbp), %rax
 3815 07e2 6689500A 		movw	%dx, 10(%rax)
 895:src/main.c    ****             ship->entity.y += i * 10;
 3816              		.loc 2 895 28 discriminator 3
 3817 07e6 488B45E8 		movq	-24(%rbp), %rax
 3818 07ea 0FB7400C 		movzwl	12(%rax), %eax
 3819 07ee 89C1     		movl	%eax, %ecx
 3820 07f0 8B8564FF 		movl	-156(%rbp), %eax
 3820      FFFF
 3821 07f6 89C2     		movl	%eax, %edx
 3822 07f8 89D0     		movl	%edx, %eax
 3823 07fa C1E002   		sall	$2, %eax
 3824 07fd 01D0     		addl	%edx, %eax
 3825 07ff 01C0     		addl	%eax, %eax
 3826 0801 01C8     		addl	%ecx, %eax
 3827 0803 89C2     		movl	%eax, %edx
 3828 0805 488B45E8 		movq	-24(%rbp), %rax
 3829 0809 6689500C 		movw	%dx, 12(%rax)
 896:src/main.c    ****             ship->entity.xVel = -1;
 3830              		.loc 2 896 31 discriminator 3
 3831 080d 488B45E8 		movq	-24(%rbp), %rax
 3832 0811 66C74012 		movw	$-1, 18(%rax)
 3832      FFFF
 897:src/main.c    ****             ship->ai = 1;
 3833              		.loc 2 897 22 discriminator 3
 3834 0817 488B45E8 		movq	-24(%rbp), %rax
 3835 081b C6400201 		movb	$1, 2(%rax)
 3836              	.LBE72:
 890:src/main.c    ****         {
 3837              		.loc 2 890 33 discriminator 3
 3838 081f 838564FF 		addl	$1, -156(%rbp)
 3838      FFFF01
 3839              	.L185:
 890:src/main.c    ****         {
 3840              		.loc 2 890 9 discriminator 1
 3841 0826 83BD64FF 		cmpl	$6, -156(%rbp)
 3841      FFFF06
 3842 082d 0F8E5FFF 		jle	.L186
 3842      FFFF
 3843              	.L184:
 3844              	.LBE71:
 898:src/main.c    ****         }
 899:src/main.c    ****     }
 900:src/main.c    ****     if( gameClock == 2700 )
 3845              		.loc 2 900 19
 3846 0833 8B050000 		movl	gameClock(%rip), %eax
 3846      0000
 3847              		.loc 2 900 7
 3848 0839 3D8C0A00 		cmpl	$2700, %eax
 3848      00
 3849 083e 7535     		jne	.L187
 3850              	.LBB73:
 901:src/main.c    ****     {
 902:src/main.c    ****         uShip *ship = createEnemyShip( 280, 72, TURCORV_WIDTH, TURCORV_HEIGHT, TurCorv );
 3851              		.loc 2 902 23
 3852 0840 4C8D0500 		leaq	TurCorv(%rip), %r8
 3852      000000
 3853 0847 B90C0000 		movl	$12, %ecx
 3853      00
 3854 084c BA190000 		movl	$25, %edx
 3854      00
 3855 0851 BE480000 		movl	$72, %esi
 3855      00
 3856 0856 BF180100 		movl	$280, %edi
 3856      00
 3857 085b E8000000 		call	createEnemyShip
 3857      00
 3858 0860 488945F0 		movq	%rax, -16(%rbp)
 903:src/main.c    ****         ship->health = 300;
 3859              		.loc 2 903 22
 3860 0864 488B45F0 		movq	-16(%rbp), %rax
 3861 0868 66C7002C 		movw	$300, (%rax)
 3861      01
 904:src/main.c    ****         ship->ai = 6;
 3862              		.loc 2 904 18
 3863 086d 488B45F0 		movq	-16(%rbp), %rax
 3864 0871 C6400206 		movb	$6, 2(%rax)
 3865              	.L187:
 3866              	.LBE73:
 905:src/main.c    ****     }
 906:src/main.c    ****     if( gameClock == 2800 )
 3867              		.loc 2 906 19
 3868 0875 8B050000 		movl	gameClock(%rip), %eax
 3868      0000
 3869              		.loc 2 906 7
 3870 087b 3DF00A00 		cmpl	$2800, %eax
 3870      00
 3871 0880 7535     		jne	.L188
 3872              	.LBB74:
 907:src/main.c    ****     {
 908:src/main.c    ****         uShip *ship = createEnemyShip( 280, 120, TURCORV_WIDTH, TURCORV_HEIGHT, TurCorv );
 3873              		.loc 2 908 23
 3874 0882 4C8D0500 		leaq	TurCorv(%rip), %r8
 3874      000000
 3875 0889 B90C0000 		movl	$12, %ecx
 3875      00
 3876 088e BA190000 		movl	$25, %edx
 3876      00
 3877 0893 BE780000 		movl	$120, %esi
 3877      00
 3878 0898 BF180100 		movl	$280, %edi
 3878      00
 3879 089d E8000000 		call	createEnemyShip
 3879      00
 3880 08a2 488945F8 		movq	%rax, -8(%rbp)
 909:src/main.c    ****         ship->health = 300;
 3881              		.loc 2 909 22
 3882 08a6 488B45F8 		movq	-8(%rbp), %rax
 3883 08aa 66C7002C 		movw	$300, (%rax)
 3883      01
 910:src/main.c    ****         ship->ai = 6;
 3884              		.loc 2 910 18
 3885 08af 488B45F8 		movq	-8(%rbp), %rax
 3886 08b3 C6400206 		movb	$6, 2(%rax)
 3887              	.L188:
 3888              	.LBE74:
 911:src/main.c    ****     }
 912:src/main.c    ****     if( gameClock == 3100 )
 3889              		.loc 2 912 19
 3890 08b7 8B050000 		movl	gameClock(%rip), %eax
 3890      0000
 3891              		.loc 2 912 7
 3892 08bd 3D1C0C00 		cmpl	$3100, %eax
 3892      00
 3893 08c2 7507     		jne	.L189
 913:src/main.c    ****     {
 914:src/main.c    ****         return true;
 3894              		.loc 2 914 16
 3895 08c4 B8010000 		movl	$1, %eax
 3895      00
 3896 08c9 EB05     		jmp	.L190
 3897              	.L189:
 915:src/main.c    ****     }
 916:src/main.c    ****     return false;
 3898              		.loc 2 916 12
 3899 08cb B8000000 		movl	$0, %eax
 3899      00
 3900              	.L190:
 917:src/main.c    **** }
 3901              		.loc 2 917 1
 3902 08d0 C9       		leave
 3903              		.cfi_def_cfa 7, 8
 3904 08d1 C3       		ret
 3905              		.cfi_endproc
 3906              	.LFE20:
 3908              		.section	.text.updateEntity,"ax",@progbits
 3909              		.globl	updateEntity
 3911              	updateEntity:
 3912              	.LFB21:
 918:src/main.c    **** 
 919:src/main.c    **** void updateEntity(uEntity *entity)
 920:src/main.c    **** {
 3913              		.loc 2 920 1
 3914              		.cfi_startproc
 3915 0000 F30F1EFA 		endbr64
 3916 0004 55       		pushq	%rbp
 3917              		.cfi_def_cfa_offset 16
 3918              		.cfi_offset 6, -16
 3919 0005 4889E5   		movq	%rsp, %rbp
 3920              		.cfi_def_cfa_register 6
 3921 0008 4883EC10 		subq	$16, %rsp
 3922 000c 48897DF8 		movq	%rdi, -8(%rbp)
 921:src/main.c    ****     entity->x += entity->xVel;
 3923              		.loc 2 921 15
 3924 0010 488B45F8 		movq	-8(%rbp), %rax
 3925 0014 0FB74002 		movzwl	2(%rax), %eax
 3926 0018 89C2     		movl	%eax, %edx
 3927              		.loc 2 921 24
 3928 001a 488B45F8 		movq	-8(%rbp), %rax
 3929 001e 0FB7400A 		movzwl	10(%rax), %eax
 3930              		.loc 2 921 15
 3931 0022 01D0     		addl	%edx, %eax
 3932 0024 89C2     		movl	%eax, %edx
 3933 0026 488B45F8 		movq	-8(%rbp), %rax
 3934 002a 66895002 		movw	%dx, 2(%rax)
 922:src/main.c    ****     entity->y += entity->yVel;
 3935              		.loc 2 922 15
 3936 002e 488B45F8 		movq	-8(%rbp), %rax
 3937 0032 0FB74004 		movzwl	4(%rax), %eax
 3938 0036 89C2     		movl	%eax, %edx
 3939              		.loc 2 922 24
 3940 0038 488B45F8 		movq	-8(%rbp), %rax
 3941 003c 0FB7400C 		movzwl	12(%rax), %eax
 3942              		.loc 2 922 15
 3943 0040 01D0     		addl	%edx, %eax
 3944 0042 89C2     		movl	%eax, %edx
 3945 0044 488B45F8 		movq	-8(%rbp), %rax
 3946 0048 66895004 		movw	%dx, 4(%rax)
 923:src/main.c    ****     if( !entity->canExit )
 3947              		.loc 2 923 16
 3948 004c 488B45F8 		movq	-8(%rbp), %rax
 3949 0050 0FB600   		movzbl	(%rax), %eax
 3950              		.loc 2 923 7
 3951 0053 84C0     		testb	%al, %al
 3952 0055 0F85A900 		jne	.L192
 3952      0000
 924:src/main.c    ****     {
 925:src/main.c    ****         if( entity->x > (240 - entity->width) )
 3953              		.loc 2 925 19
 3954 005b 488B45F8 		movq	-8(%rbp), %rax
 3955 005f 0FB74002 		movzwl	2(%rax), %eax
 3956 0063 0FBFD0   		movswl	%ax, %edx
 3957              		.loc 2 925 38
 3958 0066 488B45F8 		movq	-8(%rbp), %rax
 3959 006a 0FB74006 		movzwl	6(%rax), %eax
 3960 006e 98       		cwtl
 3961              		.loc 2 925 30
 3962 006f B9F00000 		movl	$240, %ecx
 3962      00
 3963 0074 29C1     		subl	%eax, %ecx
 3964 0076 89C8     		movl	%ecx, %eax
 3965              		.loc 2 925 11
 3966 0078 39C2     		cmpl	%eax, %edx
 3967 007a 7E1B     		jle	.L193
 926:src/main.c    ****         {
 927:src/main.c    ****             entity->x = 240 - entity->width;
 3968              		.loc 2 927 37
 3969 007c 488B45F8 		movq	-8(%rbp), %rax
 3970 0080 0FB74006 		movzwl	6(%rax), %eax
 3971              		.loc 2 927 29
 3972 0084 BAF00000 		movl	$240, %edx
 3972      00
 3973 0089 29C2     		subl	%eax, %edx
 3974 008b 89D0     		movl	%edx, %eax
 3975 008d 89C2     		movl	%eax, %edx
 3976              		.loc 2 927 23
 3977 008f 488B45F8 		movq	-8(%rbp), %rax
 3978 0093 66895002 		movw	%dx, 2(%rax)
 3979              	.L193:
 928:src/main.c    ****         }
 929:src/main.c    ****         if( entity->x < 0 )
 3980              		.loc 2 929 19
 3981 0097 488B45F8 		movq	-8(%rbp), %rax
 3982 009b 0FB74002 		movzwl	2(%rax), %eax
 3983              		.loc 2 929 11
 3984 009f 6685C0   		testw	%ax, %ax
 3985 00a2 790A     		jns	.L194
 930:src/main.c    ****         {
 931:src/main.c    ****             entity->x = 0;
 3986              		.loc 2 931 23
 3987 00a4 488B45F8 		movq	-8(%rbp), %rax
 3988 00a8 66C74002 		movw	$0, 2(%rax)
 3988      0000
 3989              	.L194:
 932:src/main.c    ****         }
 933:src/main.c    ****         if( entity->y > (160 - entity->height) )
 3990              		.loc 2 933 19
 3991 00ae 488B45F8 		movq	-8(%rbp), %rax
 3992 00b2 0FB74004 		movzwl	4(%rax), %eax
 3993 00b6 0FBFD0   		movswl	%ax, %edx
 3994              		.loc 2 933 38
 3995 00b9 488B45F8 		movq	-8(%rbp), %rax
 3996 00bd 0FB74008 		movzwl	8(%rax), %eax
 3997 00c1 98       		cwtl
 3998              		.loc 2 933 30
 3999 00c2 B9A00000 		movl	$160, %ecx
 3999      00
 4000 00c7 29C1     		subl	%eax, %ecx
 4001 00c9 89C8     		movl	%ecx, %eax
 4002              		.loc 2 933 11
 4003 00cb 39C2     		cmpl	%eax, %edx
 4004 00cd 7E1B     		jle	.L195
 934:src/main.c    ****         {
 935:src/main.c    ****             entity->y = 160 - entity->height;
 4005              		.loc 2 935 37
 4006 00cf 488B45F8 		movq	-8(%rbp), %rax
 4007 00d3 0FB74008 		movzwl	8(%rax), %eax
 4008              		.loc 2 935 29
 4009 00d7 BAA00000 		movl	$160, %edx
 4009      00
 4010 00dc 29C2     		subl	%eax, %edx
 4011 00de 89D0     		movl	%edx, %eax
 4012 00e0 89C2     		movl	%eax, %edx
 4013              		.loc 2 935 23
 4014 00e2 488B45F8 		movq	-8(%rbp), %rax
 4015 00e6 66895004 		movw	%dx, 4(%rax)
 4016              	.L195:
 936:src/main.c    ****         }
 937:src/main.c    ****         if( entity->y < UBound )
 4017              		.loc 2 937 19
 4018 00ea 488B45F8 		movq	-8(%rbp), %rax
 4019 00ee 0FB74004 		movzwl	4(%rax), %eax
 4020              		.loc 2 937 11
 4021 00f2 6683F807 		cmpw	$7, %ax
 4022 00f6 7F4C     		jg	.L196
 938:src/main.c    ****         {
 939:src/main.c    ****             entity->y = UBound;
 4023              		.loc 2 939 23
 4024 00f8 488B45F8 		movq	-8(%rbp), %rax
 4025 00fc 66C74004 		movw	$8, 4(%rax)
 4025      0800
 4026 0102 EB40     		jmp	.L196
 4027              	.L192:
 940:src/main.c    ****         }
 941:src/main.c    ****     }
 942:src/main.c    ****     else
 943:src/main.c    ****     {
 944:src/main.c    ****         if( entity->x >= 300 || entity->x < -60 || entity->y > 200 || entity->y < -40 )
 4028              		.loc 2 944 19
 4029 0104 488B45F8 		movq	-8(%rbp), %rax
 4030 0108 0FB74002 		movzwl	2(%rax), %eax
 4031              		.loc 2 944 11
 4032 010c 663D2B01 		cmpw	$299, %ax
 4033 0110 7F2A     		jg	.L197
 4034              		.loc 2 944 39 discriminator 1
 4035 0112 488B45F8 		movq	-8(%rbp), %rax
 4036 0116 0FB74002 		movzwl	2(%rax), %eax
 4037              		.loc 2 944 30 discriminator 1
 4038 011a 6683F8C4 		cmpw	$-60, %ax
 4039 011e 7C1C     		jl	.L197
 4040              		.loc 2 944 58 discriminator 2
 4041 0120 488B45F8 		movq	-8(%rbp), %rax
 4042 0124 0FB74004 		movzwl	4(%rax), %eax
 4043              		.loc 2 944 49 discriminator 2
 4044 0128 663DC800 		cmpw	$200, %ax
 4045 012c 7F0E     		jg	.L197
 4046              		.loc 2 944 77 discriminator 3
 4047 012e 488B45F8 		movq	-8(%rbp), %rax
 4048 0132 0FB74004 		movzwl	4(%rax), %eax
 4049              		.loc 2 944 68 discriminator 3
 4050 0136 6683F8D8 		cmpw	$-40, %ax
 4051 013a 7D08     		jge	.L196
 4052              	.L197:
 945:src/main.c    ****         {
 946:src/main.c    ****             entity->removed = true;
 4053              		.loc 2 946 29
 4054 013c 488B45F8 		movq	-8(%rbp), %rax
 4055 0140 C6400F01 		movb	$1, 15(%rax)
 4056              	.L196:
 947:src/main.c    ****         }
 948:src/main.c    ****     }
 949:src/main.c    ****     if( entity->isVisible )
 4057              		.loc 2 949 15
 4058 0144 488B45F8 		movq	-8(%rbp), %rax
 4059 0148 0FB6400E 		movzbl	14(%rax), %eax
 4060              		.loc 2 949 7
 4061 014c 84C0     		testb	%al, %al
 4062 014e 7419     		je	.L199
 950:src/main.c    ****     {
 951:src/main.c    ****         drawEntity( *entity );
 4063              		.loc 2 951 9
 4064 0150 4883EC08 		subq	$8, %rsp
 4065 0154 488B45F8 		movq	-8(%rbp), %rax
 4066 0158 FF7010   		pushq	16(%rax)
 4067 015b FF7008   		pushq	8(%rax)
 4068 015e FF30     		pushq	(%rax)
 4069 0160 E8000000 		call	drawEntity
 4069      00
 4070 0165 4883C420 		addq	$32, %rsp
 4071              	.L199:
 952:src/main.c    ****     }
 953:src/main.c    **** }
 4072              		.loc 2 953 1
 4073 0169 90       		nop
 4074 016a C9       		leave
 4075              		.cfi_def_cfa 7, 8
 4076 016b C3       		ret
 4077              		.cfi_endproc
 4078              	.LFE21:
 4080              		.section	.text.updatePlayer,"ax",@progbits
 4081              		.globl	updatePlayer
 4083              	updatePlayer:
 4084              	.LFB22:
 954:src/main.c    **** 
 955:src/main.c    **** char updatePlayer(uShip *ship)
 956:src/main.c    **** {
 4085              		.loc 2 956 1
 4086              		.cfi_startproc
 4087 0000 F30F1EFA 		endbr64
 4088 0004 55       		pushq	%rbp
 4089              		.cfi_def_cfa_offset 16
 4090              		.cfi_offset 6, -16
 4091 0005 4889E5   		movq	%rsp, %rbp
 4092              		.cfi_def_cfa_register 6
 4093 0008 4883EC10 		subq	$16, %rsp
 4094 000c 48897DF8 		movq	%rdi, -8(%rbp)
 957:src/main.c    **** 
 958:src/main.c    ****     if( ship->health <= 0 )
 4095              		.loc 2 958 13
 4096 0010 488B45F8 		movq	-8(%rbp), %rax
 4097 0014 0FB700   		movzwl	(%rax), %eax
 4098              		.loc 2 958 7
 4099 0017 6685C0   		testw	%ax, %ax
 4100 001a 0F8F9800 		jg	.L201
 4100      0000
 959:src/main.c    ****     {
 960:src/main.c    ****         drawRectangle( ship->entity.x, ship->entity.y, ship->entity.width, ship->entity.height, bgC
 4101              		.loc 2 960 9
 4102 0020 0FB70500 		movzwl	bgColor(%rip), %eax
 4102      000000
 4103 0027 0FB7F8   		movzwl	%ax, %edi
 4104              		.loc 2 960 88
 4105 002a 488B45F8 		movq	-8(%rbp), %rax
 4106 002e 0FB74010 		movzwl	16(%rax), %eax
 4107              		.loc 2 960 9
 4108 0032 0FBFC8   		movswl	%ax, %ecx
 4109              		.loc 2 960 68
 4110 0035 488B45F8 		movq	-8(%rbp), %rax
 4111 0039 0FB7400E 		movzwl	14(%rax), %eax
 4112              		.loc 2 960 9
 4113 003d 0FBFD0   		movswl	%ax, %edx
 4114              		.loc 2 960 52
 4115 0040 488B45F8 		movq	-8(%rbp), %rax
 4116 0044 0FB7400C 		movzwl	12(%rax), %eax
 4117              		.loc 2 960 9
 4118 0048 0FBFF0   		movswl	%ax, %esi
 4119              		.loc 2 960 36
 4120 004b 488B45F8 		movq	-8(%rbp), %rax
 4121 004f 0FB7400A 		movzwl	10(%rax), %eax
 4122              		.loc 2 960 9
 4123 0053 98       		cwtl
 4124 0054 4189F8   		movl	%edi, %r8d
 4125 0057 89C7     		movl	%eax, %edi
 4126 0059 E8000000 		call	drawRectangle@PLT
 4126      00
 961:src/main.c    ****         createExplosion( ship->entity.x, ship->entity.y );
 4127              		.loc 2 961 54
 4128 005e 488B45F8 		movq	-8(%rbp), %rax
 4129 0062 0FB7400C 		movzwl	12(%rax), %eax
 4130              		.loc 2 961 9
 4131 0066 0FBFD0   		movswl	%ax, %edx
 4132              		.loc 2 961 38
 4133 0069 488B45F8 		movq	-8(%rbp), %rax
 4134 006d 0FB7400A 		movzwl	10(%rax), %eax
 4135              		.loc 2 961 9
 4136 0071 98       		cwtl
 4137 0072 89D6     		movl	%edx, %esi
 4138 0074 89C7     		movl	%eax, %edi
 4139 0076 E8000000 		call	createExplosion
 4139      00
 962:src/main.c    ****         ship->entity.x = 5;
 4140              		.loc 2 962 24
 4141 007b 488B45F8 		movq	-8(%rbp), %rax
 4142 007f 66C7400A 		movw	$5, 10(%rax)
 4142      0500
 963:src/main.c    ****         ship->entity.y = 72;
 4143              		.loc 2 963 24
 4144 0085 488B45F8 		movq	-8(%rbp), %rax
 4145 0089 66C7400C 		movw	$72, 12(%rax)
 4145      4800
 964:src/main.c    ****         ship->health = 50;
 4146              		.loc 2 964 22
 4147 008f 488B45F8 		movq	-8(%rbp), %rax
 4148 0093 66C70032 		movw	$50, (%rax)
 4148      00
 965:src/main.c    ****         lives--;
 4149              		.loc 2 965 14
 4150 0098 8B050000 		movl	lives(%rip), %eax
 4150      0000
 4151 009e 83E801   		subl	$1, %eax
 4152 00a1 89050000 		movl	%eax, lives(%rip)
 4152      0000
 966:src/main.c    ****         if( lives <= 0 )
 4153              		.loc 2 966 19
 4154 00a7 8B050000 		movl	lives(%rip), %eax
 4154      0000
 4155              		.loc 2 966 11
 4156 00ad 85C0     		testl	%eax, %eax
 4157 00af 7F07     		jg	.L201
 967:src/main.c    ****         {
 968:src/main.c    ****             return false;
 4158              		.loc 2 968 20
 4159 00b1 B8000000 		movl	$0, %eax
 4159      00
 4160 00b6 EB53     		jmp	.L202
 4161              	.L201:
 969:src/main.c    ****         }
 970:src/main.c    ****     }
 971:src/main.c    ****     if( ship->reload > 0 )
 4162              		.loc 2 971 13
 4163 00b8 488B45F8 		movq	-8(%rbp), %rax
 4164 00bc 0FB64003 		movzbl	3(%rax), %eax
 4165              		.loc 2 971 7
 4166 00c0 84C0     		testb	%al, %al
 4167 00c2 7E14     		jle	.L203
 972:src/main.c    ****     {
 973:src/main.c    ****         ship->reload--;
 4168              		.loc 2 973 13
 4169 00c4 488B45F8 		movq	-8(%rbp), %rax
 4170 00c8 0FB64003 		movzbl	3(%rax), %eax
 4171              		.loc 2 973 21
 4172 00cc 83E801   		subl	$1, %eax
 4173 00cf 89C2     		movl	%eax, %edx
 4174 00d1 488B45F8 		movq	-8(%rbp), %rax
 4175 00d5 885003   		movb	%dl, 3(%rax)
 4176              	.L203:
 974:src/main.c    ****     }
 975:src/main.c    ****     if( shotgunTime > 0 )
 4177              		.loc 2 975 21
 4178 00d8 8B050000 		movl	shotgunTime(%rip), %eax
 4178      0000
 4179              		.loc 2 975 7
 4180 00de 85C0     		testl	%eax, %eax
 4181 00e0 7E0F     		jle	.L204
 976:src/main.c    ****     {
 977:src/main.c    ****         shotgunTime--;
 4182              		.loc 2 977 20
 4183 00e2 8B050000 		movl	shotgunTime(%rip), %eax
 4183      0000
 4184 00e8 83E801   		subl	$1, %eax
 4185 00eb 89050000 		movl	%eax, shotgunTime(%rip)
 4185      0000
 4186              	.L204:
 978:src/main.c    ****     }
 979:src/main.c    ****     updateDisplay();
 4187              		.loc 2 979 5
 4188 00f1 E8000000 		call	updateDisplay
 4188      00
 980:src/main.c    ****     updateEntity( &(ship->entity) );
 4189              		.loc 2 980 5
 4190 00f6 488B45F8 		movq	-8(%rbp), %rax
 4191 00fa 4883C008 		addq	$8, %rax
 4192 00fe 4889C7   		movq	%rax, %rdi
 4193 0101 E8000000 		call	updateEntity
 4193      00
 981:src/main.c    ****     return true;
 4194              		.loc 2 981 12
 4195 0106 B8010000 		movl	$1, %eax
 4195      00
 4196              	.L202:
 982:src/main.c    **** }
 4197              		.loc 2 982 1
 4198 010b C9       		leave
 4199              		.cfi_def_cfa 7, 8
 4200 010c C3       		ret
 4201              		.cfi_endproc
 4202              	.LFE22:
 4204              		.section	.text.updateShip,"ax",@progbits
 4205              		.globl	updateShip
 4207              	updateShip:
 4208              	.LFB23:
 983:src/main.c    **** 
 984:src/main.c    **** void updateShip(uShip *ship)
 985:src/main.c    **** {
 4209              		.loc 2 985 1
 4210              		.cfi_startproc
 4211 0000 F30F1EFA 		endbr64
 4212 0004 55       		pushq	%rbp
 4213              		.cfi_def_cfa_offset 16
 4214              		.cfi_offset 6, -16
 4215 0005 4889E5   		movq	%rsp, %rbp
 4216              		.cfi_def_cfa_register 6
 4217 0008 4883EC10 		subq	$16, %rsp
 4218 000c 48897DF8 		movq	%rdi, -8(%rbp)
 986:src/main.c    ****     updateEntity( &(ship->entity) );
 4219              		.loc 2 986 5
 4220 0010 488B45F8 		movq	-8(%rbp), %rax
 4221 0014 4883C008 		addq	$8, %rax
 4222 0018 4889C7   		movq	%rax, %rdi
 4223 001b E8000000 		call	updateEntity
 4223      00
 987:src/main.c    ****     if( ship->reload > 0 )
 4224              		.loc 2 987 13
 4225 0020 488B45F8 		movq	-8(%rbp), %rax
 4226 0024 0FB64003 		movzbl	3(%rax), %eax
 4227              		.loc 2 987 7
 4228 0028 84C0     		testb	%al, %al
 4229 002a 7E14     		jle	.L206
 988:src/main.c    ****     {
 989:src/main.c    ****         ship->reload--;
 4230              		.loc 2 989 13
 4231 002c 488B45F8 		movq	-8(%rbp), %rax
 4232 0030 0FB64003 		movzbl	3(%rax), %eax
 4233              		.loc 2 989 21
 4234 0034 83E801   		subl	$1, %eax
 4235 0037 89C2     		movl	%eax, %edx
 4236 0039 488B45F8 		movq	-8(%rbp), %rax
 4237 003d 885003   		movb	%dl, 3(%rax)
 4238              	.L206:
 990:src/main.c    ****     }
 991:src/main.c    ****     if( ship->health <= 0 )
 4239              		.loc 2 991 13
 4240 0040 488B45F8 		movq	-8(%rbp), %rax
 4241 0044 0FB700   		movzwl	(%rax), %eax
 4242              		.loc 2 991 7
 4243 0047 6685C0   		testw	%ax, %ax
 4244 004a 7F17     		jg	.L207
 992:src/main.c    ****     {
 993:src/main.c    ****         ship->entity.removed = true;
 4245              		.loc 2 993 30
 4246 004c 488B45F8 		movq	-8(%rbp), %rax
 4247 0050 C6401701 		movb	$1, 23(%rax)
 994:src/main.c    ****         score += 5;
 4248              		.loc 2 994 15
 4249 0054 8B050000 		movl	score(%rip), %eax
 4249      0000
 4250 005a 83C005   		addl	$5, %eax
 4251 005d 89050000 		movl	%eax, score(%rip)
 4251      0000
 4252              	.L207:
 995:src/main.c    ****     }
 996:src/main.c    ****     switch( ship->ai )
 4253              		.loc 2 996 17
 4254 0063 488B45F8 		movq	-8(%rbp), %rax
 4255 0067 0FB64002 		movzbl	2(%rax), %eax
 4256 006b 0FBEC0   		movsbl	%al, %eax
 4257 006e 83F806   		cmpl	$6, %eax
 4258 0071 7777     		ja	.L217
 4259 0073 89C0     		movl	%eax, %eax
 4260 0075 488D1485 		leaq	0(,%rax,4), %rdx
 4260      00000000 
 4261 007d 488D0500 		leaq	.L210(%rip), %rax
 4261      000000
 4262 0084 8B0402   		movl	(%rdx,%rax), %eax
 4263 0087 4898     		cltq
 4264 0089 488D1500 		leaq	.L210(%rip), %rdx
 4264      000000
 4265 0090 4801D0   		addq	%rdx, %rax
 4266 0093 3EFFE0   		notrack jmp	*%rax
 4267              		.section	.rodata.updateShip,"a",@progbits
 4268              		.align 4
 4269              		.align 4
 4270              	.L210:
 4271 0000 00000000 		.long	.L217-.L210
 4272 0004 00000000 		.long	.L215-.L210
 4273 0008 00000000 		.long	.L214-.L210
 4274 000c 00000000 		.long	.L213-.L210
 4275 0010 00000000 		.long	.L212-.L210
 4276 0014 00000000 		.long	.L211-.L210
 4277 0018 00000000 		.long	.L209-.L210
 4278              		.section	.text.updateShip
 4279              	.L215:
 997:src/main.c    ****     {
 998:src/main.c    ****     case 1:
 999:src/main.c    ****         ai1( ship );
 4280              		.loc 2 999 9
 4281 0096 488B45F8 		movq	-8(%rbp), %rax
 4282 009a 4889C7   		movq	%rax, %rdi
 4283 009d E8000000 		call	ai1
 4283      00
1000:src/main.c    ****         break;
 4284              		.loc 2 1000 9
 4285 00a2 EB47     		jmp	.L216
 4286              	.L214:
1001:src/main.c    ****     case 2:
1002:src/main.c    ****         ai2( ship );
 4287              		.loc 2 1002 9
 4288 00a4 488B45F8 		movq	-8(%rbp), %rax
 4289 00a8 4889C7   		movq	%rax, %rdi
 4290 00ab E8000000 		call	ai2
 4290      00
1003:src/main.c    ****         break;
 4291              		.loc 2 1003 9
 4292 00b0 EB39     		jmp	.L216
 4293              	.L213:
1004:src/main.c    ****     case 3:
1005:src/main.c    ****         ai3( ship );
 4294              		.loc 2 1005 9
 4295 00b2 488B45F8 		movq	-8(%rbp), %rax
 4296 00b6 4889C7   		movq	%rax, %rdi
 4297 00b9 E8000000 		call	ai3
 4297      00
1006:src/main.c    ****         break;
 4298              		.loc 2 1006 9
 4299 00be EB2B     		jmp	.L216
 4300              	.L212:
1007:src/main.c    ****     case 4:
1008:src/main.c    ****         ai4( ship );
 4301              		.loc 2 1008 9
 4302 00c0 488B45F8 		movq	-8(%rbp), %rax
 4303 00c4 4889C7   		movq	%rax, %rdi
 4304 00c7 E8000000 		call	ai4
 4304      00
1009:src/main.c    ****         break;
 4305              		.loc 2 1009 9
 4306 00cc EB1D     		jmp	.L216
 4307              	.L211:
1010:src/main.c    ****     case 5:
1011:src/main.c    ****         ai5( ship );
 4308              		.loc 2 1011 9
 4309 00ce 488B45F8 		movq	-8(%rbp), %rax
 4310 00d2 4889C7   		movq	%rax, %rdi
 4311 00d5 E8000000 		call	ai5
 4311      00
1012:src/main.c    ****         break;
 4312              		.loc 2 1012 9
 4313 00da EB0F     		jmp	.L216
 4314              	.L209:
1013:src/main.c    ****     case 6:
1014:src/main.c    ****         ai6( ship );
 4315              		.loc 2 1014 9
 4316 00dc 488B45F8 		movq	-8(%rbp), %rax
 4317 00e0 4889C7   		movq	%rax, %rdi
 4318 00e3 E8000000 		call	ai6
 4318      00
1015:src/main.c    ****         break;
 4319              		.loc 2 1015 9
 4320 00e8 EB01     		jmp	.L216
 4321              	.L217:
1016:src/main.c    ****     default:
1017:src/main.c    ****         break;
 4322              		.loc 2 1017 9
 4323 00ea 90       		nop
 4324              	.L216:
1018:src/main.c    ****     }
1019:src/main.c    **** 
1020:src/main.c    **** }
 4325              		.loc 2 1020 1
 4326 00eb 90       		nop
 4327 00ec C9       		leave
 4328              		.cfi_def_cfa 7, 8
 4329 00ed C3       		ret
 4330              		.cfi_endproc
 4331              	.LFE23:
 4333              		.section	.text.updateProjectile,"ax",@progbits
 4334              		.globl	updateProjectile
 4336              	updateProjectile:
 4337              	.LFB24:
1021:src/main.c    **** 
1022:src/main.c    **** void updateProjectile(uProjectile *projectile)
1023:src/main.c    **** {
 4338              		.loc 2 1023 1
 4339              		.cfi_startproc
 4340 0000 F30F1EFA 		endbr64
 4341 0004 55       		pushq	%rbp
 4342              		.cfi_def_cfa_offset 16
 4343              		.cfi_offset 6, -16
 4344 0005 4889E5   		movq	%rsp, %rbp
 4345              		.cfi_def_cfa_register 6
 4346 0008 4883EC10 		subq	$16, %rsp
 4347 000c 48897DF8 		movq	%rdi, -8(%rbp)
1024:src/main.c    ****     updateEntity( &(projectile->entity) );
 4348              		.loc 2 1024 5
 4349 0010 488B45F8 		movq	-8(%rbp), %rax
 4350 0014 4883C008 		addq	$8, %rax
 4351 0018 4889C7   		movq	%rax, %rdi
 4352 001b E8000000 		call	updateEntity
 4352      00
1025:src/main.c    **** }
 4353              		.loc 2 1025 1
 4354 0020 90       		nop
 4355 0021 C9       		leave
 4356              		.cfi_def_cfa 7, 8
 4357 0022 C3       		ret
 4358              		.cfi_endproc
 4359              	.LFE24:
 4361              		.section	.text.updateExplosion,"ax",@progbits
 4362              		.globl	updateExplosion
 4364              	updateExplosion:
 4365              	.LFB25:
1026:src/main.c    **** 
1027:src/main.c    **** void updateExplosion(uEntity *explosion)
1028:src/main.c    **** {
 4366              		.loc 2 1028 1
 4367              		.cfi_startproc
 4368 0000 F30F1EFA 		endbr64
 4369 0004 55       		pushq	%rbp
 4370              		.cfi_def_cfa_offset 16
 4371              		.cfi_offset 6, -16
 4372 0005 4889E5   		movq	%rsp, %rbp
 4373              		.cfi_def_cfa_register 6
 4374 0008 4883EC10 		subq	$16, %rsp
 4375 000c 48897DF8 		movq	%rdi, -8(%rbp)
1029:src/main.c    ****     if( explosion->image == explosion1 && explosion->canExit == 6 )
 4376              		.loc 2 1029 18
 4377 0010 488B45F8 		movq	-8(%rbp), %rax
 4378 0014 488B4010 		movq	16(%rax), %rax
 4379              		.loc 2 1029 7
 4380 0018 488D1500 		leaq	explosion1(%rip), %rdx
 4380      000000
 4381 001f 4839D0   		cmpq	%rdx, %rax
 4382 0022 7538     		jne	.L220
 4383              		.loc 2 1029 52 discriminator 1
 4384 0024 488B45F8 		movq	-8(%rbp), %rax
 4385 0028 0FB600   		movzbl	(%rax), %eax
 4386              		.loc 2 1029 40 discriminator 1
 4387 002b 3C06     		cmpb	$6, %al
 4388 002d 752D     		jne	.L220
1030:src/main.c    ****     {
1031:src/main.c    ****         explosion->image = explosion2;
 4389              		.loc 2 1031 26
 4390 002f 488B45F8 		movq	-8(%rbp), %rax
 4391 0033 488D1500 		leaq	explosion2(%rip), %rdx
 4391      000000
 4392 003a 48895010 		movq	%rdx, 16(%rax)
1032:src/main.c    ****         drawEntity( *explosion );
 4393              		.loc 2 1032 9
 4394 003e 4883EC08 		subq	$8, %rsp
 4395 0042 488B45F8 		movq	-8(%rbp), %rax
 4396 0046 FF7010   		pushq	16(%rax)
 4397 0049 FF7008   		pushq	8(%rax)
 4398 004c FF30     		pushq	(%rax)
 4399 004e E8000000 		call	drawEntity
 4399      00
 4400 0053 4883C420 		addq	$32, %rsp
 4401 0057 E9920000 		jmp	.L221
 4401      00
 4402              	.L220:
1033:src/main.c    ****     }
1034:src/main.c    ****     else if( explosion->image == explosion2 && explosion->canExit == 12 )
 4403              		.loc 2 1034 23
 4404 005c 488B45F8 		movq	-8(%rbp), %rax
 4405 0060 488B4010 		movq	16(%rax), %rax
 4406              		.loc 2 1034 12
 4407 0064 488D1500 		leaq	explosion2(%rip), %rdx
 4407      000000
 4408 006b 4839D0   		cmpq	%rdx, %rax
 4409 006e 7535     		jne	.L222
 4410              		.loc 2 1034 57 discriminator 1
 4411 0070 488B45F8 		movq	-8(%rbp), %rax
 4412 0074 0FB600   		movzbl	(%rax), %eax
 4413              		.loc 2 1034 45 discriminator 1
 4414 0077 3C0C     		cmpb	$12, %al
 4415 0079 752A     		jne	.L222
1035:src/main.c    ****     {
1036:src/main.c    ****         explosion->image = explosion3;
 4416              		.loc 2 1036 26
 4417 007b 488B45F8 		movq	-8(%rbp), %rax
 4418 007f 488D1500 		leaq	explosion3(%rip), %rdx
 4418      000000
 4419 0086 48895010 		movq	%rdx, 16(%rax)
1037:src/main.c    ****         drawEntity( *explosion );
 4420              		.loc 2 1037 9
 4421 008a 4883EC08 		subq	$8, %rsp
 4422 008e 488B45F8 		movq	-8(%rbp), %rax
 4423 0092 FF7010   		pushq	16(%rax)
 4424 0095 FF7008   		pushq	8(%rax)
 4425 0098 FF30     		pushq	(%rax)
 4426 009a E8000000 		call	drawEntity
 4426      00
 4427 009f 4883C420 		addq	$32, %rsp
 4428 00a3 EB49     		jmp	.L221
 4429              	.L222:
1038:src/main.c    ****     }
1039:src/main.c    ****     else if( explosion->canExit == 18 )
 4430              		.loc 2 1039 23
 4431 00a5 488B45F8 		movq	-8(%rbp), %rax
 4432 00a9 0FB600   		movzbl	(%rax), %eax
 4433              		.loc 2 1039 12
 4434 00ac 3C12     		cmpb	$18, %al
 4435 00ae 753E     		jne	.L221
1040:src/main.c    ****     {
1041:src/main.c    ****         drawRectangle( explosion->x, explosion->y, explosion->width, explosion->height, bgColor );
 4436              		.loc 2 1041 9
 4437 00b0 0FB70500 		movzwl	bgColor(%rip), %eax
 4437      000000
 4438 00b7 0FB7F8   		movzwl	%ax, %edi
 4439              		.loc 2 1041 79
 4440 00ba 488B45F8 		movq	-8(%rbp), %rax
 4441 00be 0FB74008 		movzwl	8(%rax), %eax
 4442              		.loc 2 1041 9
 4443 00c2 0FBFC8   		movswl	%ax, %ecx
 4444              		.loc 2 1041 61
 4445 00c5 488B45F8 		movq	-8(%rbp), %rax
 4446 00c9 0FB74006 		movzwl	6(%rax), %eax
 4447              		.loc 2 1041 9
 4448 00cd 0FBFD0   		movswl	%ax, %edx
 4449              		.loc 2 1041 47
 4450 00d0 488B45F8 		movq	-8(%rbp), %rax
 4451 00d4 0FB74004 		movzwl	4(%rax), %eax
 4452              		.loc 2 1041 9
 4453 00d8 0FBFF0   		movswl	%ax, %esi
 4454              		.loc 2 1041 33
 4455 00db 488B45F8 		movq	-8(%rbp), %rax
 4456 00df 0FB74002 		movzwl	2(%rax), %eax
 4457              		.loc 2 1041 9
 4458 00e3 98       		cwtl
 4459 00e4 4189F8   		movl	%edi, %r8d
 4460 00e7 89C7     		movl	%eax, %edi
 4461 00e9 E8000000 		call	drawRectangle@PLT
 4461      00
 4462              	.L221:
1042:src/main.c    ****     }
1043:src/main.c    ****     explosion->canExit += 1;
 4463              		.loc 2 1043 24
 4464 00ee 488B45F8 		movq	-8(%rbp), %rax
 4465 00f2 0FB600   		movzbl	(%rax), %eax
 4466 00f5 83C001   		addl	$1, %eax
 4467 00f8 89C2     		movl	%eax, %edx
 4468 00fa 488B45F8 		movq	-8(%rbp), %rax
 4469 00fe 8810     		movb	%dl, (%rax)
1044:src/main.c    **** }
 4470              		.loc 2 1044 1
 4471 0100 90       		nop
 4472 0101 C9       		leave
 4473              		.cfi_def_cfa 7, 8
 4474 0102 C3       		ret
 4475              		.cfi_endproc
 4476              	.LFE25:
 4478              		.section	.text.updatePickup,"ax",@progbits
 4479              		.globl	updatePickup
 4481              	updatePickup:
 4482              	.LFB26:
1045:src/main.c    **** 
1046:src/main.c    **** void updatePickup(uPickup *Pickup)
1047:src/main.c    **** {
 4483              		.loc 2 1047 1
 4484              		.cfi_startproc
 4485 0000 F30F1EFA 		endbr64
 4486 0004 55       		pushq	%rbp
 4487              		.cfi_def_cfa_offset 16
 4488              		.cfi_offset 6, -16
 4489 0005 4889E5   		movq	%rsp, %rbp
 4490              		.cfi_def_cfa_register 6
 4491 0008 4883EC10 		subq	$16, %rsp
 4492 000c 48897DF8 		movq	%rdi, -8(%rbp)
1048:src/main.c    ****     updateEntity( &(Pickup->entity) );
 4493              		.loc 2 1048 5
 4494 0010 488B45F8 		movq	-8(%rbp), %rax
 4495 0014 4883C008 		addq	$8, %rax
 4496 0018 4889C7   		movq	%rax, %rdi
 4497 001b E8000000 		call	updateEntity
 4497      00
1049:src/main.c    **** }
 4498              		.loc 2 1049 1
 4499 0020 90       		nop
 4500 0021 C9       		leave
 4501              		.cfi_def_cfa 7, 8
 4502 0022 C3       		ret
 4503              		.cfi_endproc
 4504              	.LFE26:
 4506              		.section	.rodata
 4507              	.LC7:
 4508 006f 53636F72 		.string	"Score %d"
 4508      65202564 
 4508      00
 4509              	.LC8:
 4510 0078 4C766C20 		.string	"Lvl %d"
 4510      256400
 4511              	.LC9:
 4512 007f 526B7420 		.string	"Rkt %d"
 4512      256400
 4513              	.LC10:
 4514 0086 4C696665 		.string	"Life %d"
 4514      20256400 
 4515              		.section	.text.updateDisplay,"ax",@progbits
 4516              		.globl	updateDisplay
 4518              	updateDisplay:
 4519              	.LFB27:
1050:src/main.c    **** 
1051:src/main.c    **** void updateDisplay()
1052:src/main.c    **** {
 4520              		.loc 2 1052 1
 4521              		.cfi_startproc
 4522 0000 F30F1EFA 		endbr64
 4523 0004 55       		pushq	%rbp
 4524              		.cfi_def_cfa_offset 16
 4525              		.cfi_offset 6, -16
 4526 0005 4889E5   		movq	%rsp, %rbp
 4527              		.cfi_def_cfa_register 6
1053:src/main.c    ****     if( oldScore != score )
 4528              		.loc 2 1053 18
 4529 0008 8B150000 		movl	oldScore(%rip), %edx
 4529      0000
 4530 000e 8B050000 		movl	score(%rip), %eax
 4530      0000
 4531              		.loc 2 1053 7
 4532 0014 39C2     		cmpl	%eax, %edx
 4533 0016 746D     		je	.L225
1054:src/main.c    ****     {
1055:src/main.c    ****         oldScore = score;
 4534              		.loc 2 1055 18
 4535 0018 8B050000 		movl	score(%rip), %eax
 4535      0000
 4536 001e 89050000 		movl	%eax, oldScore(%rip)
 4536      0000
1056:src/main.c    ****         sprintf( buffer, "Score %d", score );
 4537              		.loc 2 1056 9
 4538 0024 8B050000 		movl	score(%rip), %eax
 4538      0000
 4539 002a 89C2     		movl	%eax, %edx
 4540 002c 488D3500 		leaq	.LC7(%rip), %rsi
 4540      000000
 4541 0033 488D3D00 		leaq	buffer(%rip), %rdi
 4541      000000
 4542 003a B8000000 		movl	$0, %eax
 4542      00
 4543 003f E8000000 		call	sprintf@PLT
 4543      00
1057:src/main.c    ****         drawRectangle( 175, 0, 65, UBound, barColor ); // The 14 is allowing for as many as 14 char
 4544              		.loc 2 1057 9
 4545 0044 0FB70500 		movzwl	barColor(%rip), %eax
 4545      000000
 4546 004b 0FB7C0   		movzwl	%ax, %eax
 4547 004e 4189C0   		movl	%eax, %r8d
 4548 0051 B9080000 		movl	$8, %ecx
 4548      00
 4549 0056 BA410000 		movl	$65, %edx
 4549      00
 4550 005b BE000000 		movl	$0, %esi
 4550      00
 4551 0060 BFAF0000 		movl	$175, %edi
 4551      00
 4552 0065 E8000000 		call	drawRectangle@PLT
 4552      00
1058:src/main.c    ****         drawString( 175, 0, buffer, RGB( 31, 31, 31 ) );
 4553              		.loc 2 1058 9
 4554 006a B9FF7F00 		movl	$32767, %ecx
 4554      00
 4555 006f 488D1500 		leaq	buffer(%rip), %rdx
 4555      000000
 4556 0076 BE000000 		movl	$0, %esi
 4556      00
 4557 007b BFAF0000 		movl	$175, %edi
 4557      00
 4558 0080 E8000000 		call	drawString@PLT
 4558      00
 4559              	.L225:
1059:src/main.c    ****     }
1060:src/main.c    ****     if( oldLevel != level )
 4560              		.loc 2 1060 18
 4561 0085 8B150000 		movl	oldLevel(%rip), %edx
 4561      0000
 4562 008b 8B050000 		movl	level(%rip), %eax
 4562      0000
 4563              		.loc 2 1060 7
 4564 0091 39C2     		cmpl	%eax, %edx
 4565 0093 746D     		je	.L226
1061:src/main.c    ****     {
1062:src/main.c    ****         oldLevel = level;
 4566              		.loc 2 1062 18
 4567 0095 8B050000 		movl	level(%rip), %eax
 4567      0000
 4568 009b 89050000 		movl	%eax, oldLevel(%rip)
 4568      0000
1063:src/main.c    ****         sprintf( buffer, "Lvl %d", level );
 4569              		.loc 2 1063 9
 4570 00a1 8B050000 		movl	level(%rip), %eax
 4570      0000
 4571 00a7 89C2     		movl	%eax, %edx
 4572 00a9 488D3500 		leaq	.LC8(%rip), %rsi
 4572      000000
 4573 00b0 488D3D00 		leaq	buffer(%rip), %rdi
 4573      000000
 4574 00b7 B8000000 		movl	$0, %eax
 4574      00
 4575 00bc E8000000 		call	sprintf@PLT
 4575      00
1064:src/main.c    ****         drawRectangle( 140, 0, 35, UBound, barColor ); // The 14 is allowing for as many as 14 char
 4576              		.loc 2 1064 9
 4577 00c1 0FB70500 		movzwl	barColor(%rip), %eax
 4577      000000
 4578 00c8 0FB7C0   		movzwl	%ax, %eax
 4579 00cb 4189C0   		movl	%eax, %r8d
 4580 00ce B9080000 		movl	$8, %ecx
 4580      00
 4581 00d3 BA230000 		movl	$35, %edx
 4581      00
 4582 00d8 BE000000 		movl	$0, %esi
 4582      00
 4583 00dd BF8C0000 		movl	$140, %edi
 4583      00
 4584 00e2 E8000000 		call	drawRectangle@PLT
 4584      00
1065:src/main.c    ****         drawString( 140, 0, buffer, RGB( 31, 31, 31 ) );
 4585              		.loc 2 1065 9
 4586 00e7 B9FF7F00 		movl	$32767, %ecx
 4586      00
 4587 00ec 488D1500 		leaq	buffer(%rip), %rdx
 4587      000000
 4588 00f3 BE000000 		movl	$0, %esi
 4588      00
 4589 00f8 BF8C0000 		movl	$140, %edi
 4589      00
 4590 00fd E8000000 		call	drawString@PLT
 4590      00
 4591              	.L226:
1066:src/main.c    ****     }
1067:src/main.c    ****     if( oldHealth != player.health )
 4592              		.loc 2 1067 28
 4593 0102 0FB70500 		movzwl	player(%rip), %eax
 4593      000000
 4594 0109 0FBFD0   		movswl	%ax, %edx
 4595              		.loc 2 1067 19
 4596 010c 8B050000 		movl	oldHealth(%rip), %eax
 4596      0000
 4597              		.loc 2 1067 7
 4598 0112 39C2     		cmpl	%eax, %edx
 4599 0114 0F84CC00 		je	.L227
 4599      0000
1068:src/main.c    ****     {
1069:src/main.c    ****         oldHealth = player.health;
 4600              		.loc 2 1069 27
 4601 011a 0FB70500 		movzwl	player(%rip), %eax
 4601      000000
 4602 0121 98       		cwtl
 4603              		.loc 2 1069 19
 4604 0122 89050000 		movl	%eax, oldHealth(%rip)
 4604      0000
1070:src/main.c    ****         drawRectangle( 85, 0, 50, UBound, barColor );
 4605              		.loc 2 1070 9
 4606 0128 0FB70500 		movzwl	barColor(%rip), %eax
 4606      000000
 4607 012f 0FB7C0   		movzwl	%ax, %eax
 4608 0132 4189C0   		movl	%eax, %r8d
 4609 0135 B9080000 		movl	$8, %ecx
 4609      00
 4610 013a BA320000 		movl	$50, %edx
 4610      00
 4611 013f BE000000 		movl	$0, %esi
 4611      00
 4612 0144 BF550000 		movl	$85, %edi
 4612      00
 4613 0149 E8000000 		call	drawRectangle@PLT
 4613      00
1071:src/main.c    ****         drawRectangle( 85, 1, 50, 6, RGB( 31, 0, 0 ) );
 4614              		.loc 2 1071 9
 4615 014e 41B81F00 		movl	$31, %r8d
 4615      0000
 4616 0154 B9060000 		movl	$6, %ecx
 4616      00
 4617 0159 BA320000 		movl	$50, %edx
 4617      00
 4618 015e BE010000 		movl	$1, %esi
 4618      00
 4619 0163 BF550000 		movl	$85, %edi
 4619      00
 4620 0168 E8000000 		call	drawRectangle@PLT
 4620      00
1072:src/main.c    ****         if( player.health <= 50 )
 4621              		.loc 2 1072 19
 4622 016d 0FB70500 		movzwl	player(%rip), %eax
 4622      000000
 4623              		.loc 2 1072 11
 4624 0174 6683F832 		cmpw	$50, %ax
 4625 0178 7F26     		jg	.L228
1073:src/main.c    ****         {
1074:src/main.c    ****             drawRectangle( 85, 1, player.health, 6, RGB( 0, 31, 0 ) );
 4626              		.loc 2 1074 41
 4627 017a 0FB70500 		movzwl	player(%rip), %eax
